	.file	"loops.cc"
	.text
	.section	.text.startup,"ax",@progbits
	.p2align 4,,15
	.globl	main
	.type	main, @function
main:
.LFB1586:
	.cfi_startproc
	pushq	%rbx
	.cfi_def_cfa_offset 16
	.cfi_offset 3, -16
	movl	$10, %ebx
	.p2align 4,,10
	.p2align 3
.L2:
	call	_Z1fv@PLT
	subl	$1, %ebx
	jne	.L2
	movl	$11, %ebx
	.p2align 4,,10
	.p2align 3
.L3:
	call	_Z1fv@PLT
	subl	$1, %ebx
	jne	.L3
	xorl	%eax, %eax
	popq	%rbx
	.cfi_def_cfa_offset 8
	ret
	.cfi_endproc
.LFE1586:
	.size	main, .-main
	.p2align 4,,15
	.type	_GLOBAL__sub_I_main, @function
_GLOBAL__sub_I_main:
.LFB2067:
	.cfi_startproc
	subq	$8, %rsp
	.cfi_def_cfa_offset 16
	leaq	_ZStL8__ioinit(%rip), %rdi
	call	_ZNSt8ios_base4InitC1Ev@PLT
	movq	_ZNSt8ios_base4InitD1Ev@GOTPCREL(%rip), %rdi
	addq	$8, %rsp
	.cfi_def_cfa_offset 8
	leaq	__dso_handle(%rip), %rdx
	leaq	_ZStL8__ioinit(%rip), %rsi
	jmp	__cxa_atexit@PLT
	.cfi_endproc
.LFE2067:
	.size	_GLOBAL__sub_I_main, .-_GLOBAL__sub_I_main
	.section	.init_array,"aw"
	.align 8
	.quad	_GLOBAL__sub_I_main
	.local	_ZStL8__ioinit
	.comm	_ZStL8__ioinit,1,1
	.hidden	__dso_handle
	.ident	"GCC: (Ubuntu 8.2.0-7ubuntu1) 8.2.0"
	.section	.note.GNU-stack,"",@progbits
