
a.exe:     file format pei-x86-64


Disassembly of section .text:

0000000140001000 <__mingw_invalidParameterHandler>:
   140001000:	c3                   	ret
   140001001:	66 66 2e 0f 1f 84 00 	data16 cs nopw 0x0(%rax,%rax,1)
   140001008:	00 00 00 00 
   14000100c:	0f 1f 40 00          	nopl   0x0(%rax)

0000000140001010 <pre_c_init>:
   140001010:	48 83 ec 28          	sub    $0x28,%rsp
   140001014:	48 8b 05 f5 33 00 00 	mov    0x33f5(%rip),%rax        # 140004410 <.refptr.__mingw_initltsdrot_force>
   14000101b:	31 c9                	xor    %ecx,%ecx
   14000101d:	c7 00 01 00 00 00    	movl   $0x1,(%rax)
   140001023:	48 8b 05 f6 33 00 00 	mov    0x33f6(%rip),%rax        # 140004420 <.refptr.__mingw_initltsdyn_force>
   14000102a:	c7 00 01 00 00 00    	movl   $0x1,(%rax)
   140001030:	48 8b 05 f9 33 00 00 	mov    0x33f9(%rip),%rax        # 140004430 <.refptr.__mingw_initltssuo_force>
   140001037:	c7 00 01 00 00 00    	movl   $0x1,(%rax)
   14000103d:	48 8b 05 6c 33 00 00 	mov    0x336c(%rip),%rax        # 1400043b0 <.refptr.__image_base__>
   140001044:	66 81 38 4d 5a       	cmpw   $0x5a4d,(%rax)
   140001049:	75 0f                	jne    14000105a <pre_c_init+0x4a>
   14000104b:	48 63 50 3c          	movslq 0x3c(%rax),%rdx
   14000104f:	48 01 d0             	add    %rdx,%rax
   140001052:	81 38 50 45 00 00    	cmpl   $0x4550,(%rax)
   140001058:	74 66                	je     1400010c0 <pre_c_init+0xb0>
   14000105a:	48 8b 05 9f 33 00 00 	mov    0x339f(%rip),%rax        # 140004400 <.refptr.__mingw_app_type>
   140001061:	89 0d b9 5f 00 00    	mov    %ecx,0x5fb9(%rip)        # 140007020 <managedapp>
   140001067:	8b 00                	mov    (%rax),%eax
   140001069:	85 c0                	test   %eax,%eax
   14000106b:	74 43                	je     1400010b0 <pre_c_init+0xa0>
   14000106d:	b9 02 00 00 00       	mov    $0x2,%ecx
   140001072:	e8 01 17 00 00       	call   140002778 <__set_app_type>
   140001077:	e8 74 16 00 00       	call   1400026f0 <__p__fmode>
   14000107c:	48 8b 15 4d 34 00 00 	mov    0x344d(%rip),%rdx        # 1400044d0 <.refptr._fmode>
   140001083:	8b 12                	mov    (%rdx),%edx
   140001085:	89 10                	mov    %edx,(%rax)
   140001087:	e8 74 16 00 00       	call   140002700 <__p__commode>
   14000108c:	48 8b 15 1d 34 00 00 	mov    0x341d(%rip),%rdx        # 1400044b0 <.refptr._commode>
   140001093:	8b 12                	mov    (%rdx),%edx
   140001095:	89 10                	mov    %edx,(%rax)
   140001097:	e8 84 06 00 00       	call   140001720 <_setargv>
   14000109c:	48 8b 05 ad 32 00 00 	mov    0x32ad(%rip),%rax        # 140004350 <.refptr._MINGW_INSTALL_DEBUG_MATHERR>
   1400010a3:	83 38 01             	cmpl   $0x1,(%rax)
   1400010a6:	74 50                	je     1400010f8 <pre_c_init+0xe8>
   1400010a8:	31 c0                	xor    %eax,%eax
   1400010aa:	48 83 c4 28          	add    $0x28,%rsp
   1400010ae:	c3                   	ret
   1400010af:	90                   	nop
   1400010b0:	b9 01 00 00 00       	mov    $0x1,%ecx
   1400010b5:	e8 be 16 00 00       	call   140002778 <__set_app_type>
   1400010ba:	eb bb                	jmp    140001077 <pre_c_init+0x67>
   1400010bc:	0f 1f 40 00          	nopl   0x0(%rax)
   1400010c0:	0f b7 50 18          	movzwl 0x18(%rax),%edx
   1400010c4:	66 81 fa 0b 01       	cmp    $0x10b,%dx
   1400010c9:	74 45                	je     140001110 <pre_c_init+0x100>
   1400010cb:	66 81 fa 0b 02       	cmp    $0x20b,%dx
   1400010d0:	75 88                	jne    14000105a <pre_c_init+0x4a>
   1400010d2:	83 b8 84 00 00 00 0e 	cmpl   $0xe,0x84(%rax)
   1400010d9:	0f 86 7b ff ff ff    	jbe    14000105a <pre_c_init+0x4a>
   1400010df:	8b 90 f8 00 00 00    	mov    0xf8(%rax),%edx
   1400010e5:	31 c9                	xor    %ecx,%ecx
   1400010e7:	85 d2                	test   %edx,%edx
   1400010e9:	0f 95 c1             	setne  %cl
   1400010ec:	e9 69 ff ff ff       	jmp    14000105a <pre_c_init+0x4a>
   1400010f1:	0f 1f 80 00 00 00 00 	nopl   0x0(%rax)
   1400010f8:	48 8b 0d f1 33 00 00 	mov    0x33f1(%rip),%rcx        # 1400044f0 <.refptr._matherr>
   1400010ff:	e8 8c 0d 00 00       	call   140001e90 <__mingw_setusermatherr>
   140001104:	31 c0                	xor    %eax,%eax
   140001106:	48 83 c4 28          	add    $0x28,%rsp
   14000110a:	c3                   	ret
   14000110b:	0f 1f 44 00 00       	nopl   0x0(%rax,%rax,1)
   140001110:	83 78 74 0e          	cmpl   $0xe,0x74(%rax)
   140001114:	0f 86 40 ff ff ff    	jbe    14000105a <pre_c_init+0x4a>
   14000111a:	44 8b 80 e8 00 00 00 	mov    0xe8(%rax),%r8d
   140001121:	31 c9                	xor    %ecx,%ecx
   140001123:	45 85 c0             	test   %r8d,%r8d
   140001126:	0f 95 c1             	setne  %cl
   140001129:	e9 2c ff ff ff       	jmp    14000105a <pre_c_init+0x4a>
   14000112e:	66 90                	xchg   %ax,%ax

0000000140001130 <pre_cpp_init>:
   140001130:	48 83 ec 38          	sub    $0x38,%rsp
   140001134:	48 8b 05 c5 33 00 00 	mov    0x33c5(%rip),%rax        # 140004500 <.refptr._newmode>
   14000113b:	4c 8d 05 e6 5e 00 00 	lea    0x5ee6(%rip),%r8        # 140007028 <envp>
   140001142:	48 8d 15 e7 5e 00 00 	lea    0x5ee7(%rip),%rdx        # 140007030 <argv>
   140001149:	48 8d 0d e8 5e 00 00 	lea    0x5ee8(%rip),%rcx        # 140007038 <argc>
   140001150:	8b 00                	mov    (%rax),%eax
   140001152:	89 05 c0 5e 00 00    	mov    %eax,0x5ec0(%rip)        # 140007018 <startinfo>
   140001158:	48 8b 05 61 33 00 00 	mov    0x3361(%rip),%rax        # 1400044c0 <.refptr._dowildcard>
   14000115f:	44 8b 08             	mov    (%rax),%r9d
   140001162:	48 8d 05 af 5e 00 00 	lea    0x5eaf(%rip),%rax        # 140007018 <startinfo>
   140001169:	48 89 44 24 20       	mov    %rax,0x20(%rsp)
   14000116e:	e8 f5 15 00 00       	call   140002768 <__getmainargs>
   140001173:	90                   	nop
   140001174:	48 83 c4 38          	add    $0x38,%rsp
   140001178:	c3                   	ret
   140001179:	0f 1f 80 00 00 00 00 	nopl   0x0(%rax)

0000000140001180 <__tmainCRTStartup>:
   140001180:	41 54                	push   %r12
   140001182:	55                   	push   %rbp
   140001183:	57                   	push   %rdi
   140001184:	56                   	push   %rsi
   140001185:	53                   	push   %rbx
   140001186:	48 81 ec 90 00 00 00 	sub    $0x90,%rsp
   14000118d:	b9 0d 00 00 00       	mov    $0xd,%ecx
   140001192:	31 c0                	xor    %eax,%eax
   140001194:	48 8d 54 24 20       	lea    0x20(%rsp),%rdx
   140001199:	48 89 d7             	mov    %rdx,%rdi
   14000119c:	f3 48 ab             	rep stos %rax,%es:(%rdi)
   14000119f:	48 8b 3d 5a 32 00 00 	mov    0x325a(%rip),%rdi        # 140004400 <.refptr.__mingw_app_type>
   1400011a6:	44 8b 0f             	mov    (%rdi),%r9d
   1400011a9:	45 85 c9             	test   %r9d,%r9d
   1400011ac:	0f 85 9e 02 00 00    	jne    140001450 <__tmainCRTStartup+0x2d0>
   1400011b2:	65 48 8b 04 25 30 00 	mov    %gs:0x30,%rax
   1400011b9:	00 00 
   1400011bb:	48 8b 1d 8e 32 00 00 	mov    0x328e(%rip),%rbx        # 140004450 <.refptr.__native_startup_lock>
   1400011c2:	48 8b 70 08          	mov    0x8(%rax),%rsi
   1400011c6:	31 ed                	xor    %ebp,%ebp
   1400011c8:	4c 8b 25 19 70 00 00 	mov    0x7019(%rip),%r12        # 1400081e8 <__imp_Sleep>
   1400011cf:	eb 18                	jmp    1400011e9 <__tmainCRTStartup+0x69>
   1400011d1:	0f 1f 80 00 00 00 00 	nopl   0x0(%rax)
   1400011d8:	48 39 c6             	cmp    %rax,%rsi
   1400011db:	0f 84 0f 02 00 00    	je     1400013f0 <__tmainCRTStartup+0x270>
   1400011e1:	b9 e8 03 00 00       	mov    $0x3e8,%ecx
   1400011e6:	41 ff d4             	call   *%r12
   1400011e9:	48 89 e8             	mov    %rbp,%rax
   1400011ec:	f0 48 0f b1 33       	lock cmpxchg %rsi,(%rbx)
   1400011f1:	48 85 c0             	test   %rax,%rax
   1400011f4:	75 e2                	jne    1400011d8 <__tmainCRTStartup+0x58>
   1400011f6:	48 8b 35 63 32 00 00 	mov    0x3263(%rip),%rsi        # 140004460 <.refptr.__native_startup_state>
   1400011fd:	31 ed                	xor    %ebp,%ebp
   1400011ff:	8b 06                	mov    (%rsi),%eax
   140001201:	83 f8 01             	cmp    $0x1,%eax
   140001204:	0f 84 fd 01 00 00    	je     140001407 <__tmainCRTStartup+0x287>
   14000120a:	8b 06                	mov    (%rsi),%eax
   14000120c:	85 c0                	test   %eax,%eax
   14000120e:	0f 84 6c 02 00 00    	je     140001480 <__tmainCRTStartup+0x300>
   140001214:	c7 05 fe 5d 00 00 01 	movl   $0x1,0x5dfe(%rip)        # 14000701c <has_cctor>
   14000121b:	00 00 00 
   14000121e:	8b 06                	mov    (%rsi),%eax
   140001220:	83 f8 01             	cmp    $0x1,%eax
   140001223:	0f 84 f3 01 00 00    	je     14000141c <__tmainCRTStartup+0x29c>
   140001229:	85 ed                	test   %ebp,%ebp
   14000122b:	0f 84 0c 02 00 00    	je     14000143d <__tmainCRTStartup+0x2bd>
   140001231:	48 8b 05 68 31 00 00 	mov    0x3168(%rip),%rax        # 1400043a0 <.refptr.__dyn_tls_init_callback>
   140001238:	48 8b 00             	mov    (%rax),%rax
   14000123b:	48 85 c0             	test   %rax,%rax
   14000123e:	74 0c                	je     14000124c <__tmainCRTStartup+0xcc>
   140001240:	45 31 c0             	xor    %r8d,%r8d
   140001243:	ba 02 00 00 00       	mov    $0x2,%edx
   140001248:	31 c9                	xor    %ecx,%ecx
   14000124a:	ff d0                	call   *%rax
   14000124c:	e8 9f 08 00 00       	call   140001af0 <_pei386_runtime_relocator>
   140001251:	48 8b 0d 88 32 00 00 	mov    0x3288(%rip),%rcx        # 1400044e0 <.refptr._gnu_exception_handler>
   140001258:	ff 15 82 6f 00 00    	call   *0x6f82(%rip)        # 1400081e0 <__imp_SetUnhandledExceptionFilter>
   14000125e:	48 8b 15 db 31 00 00 	mov    0x31db(%rip),%rdx        # 140004440 <.refptr.__mingw_oldexcpt_handler>
   140001265:	48 8d 0d 94 fd ff ff 	lea    -0x26c(%rip),%rcx        # 140001000 <__mingw_invalidParameterHandler>
   14000126c:	48 89 02             	mov    %rax,(%rdx)
   14000126f:	e8 bc 14 00 00       	call   140002730 <_set_invalid_parameter_handler>
   140001274:	e8 87 06 00 00       	call   140001900 <_fpreset>
   140001279:	48 8b 05 30 31 00 00 	mov    0x3130(%rip),%rax        # 1400043b0 <.refptr.__image_base__>
   140001280:	48 89 05 89 5d 00 00 	mov    %rax,0x5d89(%rip)        # 140007010 <__mingw_winmain_hInstance>
   140001287:	e8 84 14 00 00       	call   140002710 <__p__acmdln>
   14000128c:	31 c9                	xor    %ecx,%ecx
   14000128e:	48 8b 00             	mov    (%rax),%rax
   140001291:	48 85 c0             	test   %rax,%rax
   140001294:	75 1c                	jne    1400012b2 <__tmainCRTStartup+0x132>
   140001296:	eb 58                	jmp    1400012f0 <__tmainCRTStartup+0x170>
   140001298:	0f 1f 84 00 00 00 00 	nopl   0x0(%rax,%rax,1)
   14000129f:	00 
   1400012a0:	84 d2                	test   %dl,%dl
   1400012a2:	74 45                	je     1400012e9 <__tmainCRTStartup+0x169>
   1400012a4:	83 e1 01             	and    $0x1,%ecx
   1400012a7:	74 27                	je     1400012d0 <__tmainCRTStartup+0x150>
   1400012a9:	b9 01 00 00 00       	mov    $0x1,%ecx
   1400012ae:	48 83 c0 01          	add    $0x1,%rax
   1400012b2:	0f b6 10             	movzbl (%rax),%edx
   1400012b5:	80 fa 20             	cmp    $0x20,%dl
   1400012b8:	7e e6                	jle    1400012a0 <__tmainCRTStartup+0x120>
   1400012ba:	41 89 c8             	mov    %ecx,%r8d
   1400012bd:	41 83 f0 01          	xor    $0x1,%r8d
   1400012c1:	80 fa 22             	cmp    $0x22,%dl
   1400012c4:	41 0f 44 c8          	cmove  %r8d,%ecx
   1400012c8:	eb e4                	jmp    1400012ae <__tmainCRTStartup+0x12e>
   1400012ca:	66 0f 1f 44 00 00    	nopw   0x0(%rax,%rax,1)
   1400012d0:	84 d2                	test   %dl,%dl
   1400012d2:	74 15                	je     1400012e9 <__tmainCRTStartup+0x169>
   1400012d4:	0f 1f 40 00          	nopl   0x0(%rax)
   1400012d8:	0f b6 50 01          	movzbl 0x1(%rax),%edx
   1400012dc:	48 83 c0 01          	add    $0x1,%rax
   1400012e0:	84 d2                	test   %dl,%dl
   1400012e2:	74 05                	je     1400012e9 <__tmainCRTStartup+0x169>
   1400012e4:	80 fa 20             	cmp    $0x20,%dl
   1400012e7:	7e ef                	jle    1400012d8 <__tmainCRTStartup+0x158>
   1400012e9:	48 89 05 18 5d 00 00 	mov    %rax,0x5d18(%rip)        # 140007008 <__mingw_winmain_lpCmdLine>
   1400012f0:	44 8b 07             	mov    (%rdi),%r8d
   1400012f3:	45 85 c0             	test   %r8d,%r8d
   1400012f6:	74 16                	je     14000130e <__tmainCRTStartup+0x18e>
   1400012f8:	b8 0a 00 00 00       	mov    $0xa,%eax
   1400012fd:	f6 44 24 5c 01       	testb  $0x1,0x5c(%rsp)
   140001302:	0f 85 d8 00 00 00    	jne    1400013e0 <__tmainCRTStartup+0x260>
   140001308:	89 05 f2 1c 00 00    	mov    %eax,0x1cf2(%rip)        # 140003000 <__data_start__>
   14000130e:	8b 1d 24 5d 00 00    	mov    0x5d24(%rip),%ebx        # 140007038 <argc>
   140001314:	44 8d 63 01          	lea    0x1(%rbx),%r12d
   140001318:	4d 63 e4             	movslq %r12d,%r12
   14000131b:	49 c1 e4 03          	shl    $0x3,%r12
   14000131f:	4c 89 e1             	mov    %r12,%rcx
   140001322:	e8 b1 14 00 00       	call   1400027d8 <malloc>
   140001327:	48 8b 3d 02 5d 00 00 	mov    0x5d02(%rip),%rdi        # 140007030 <argv>
   14000132e:	48 89 c5             	mov    %rax,%rbp
   140001331:	85 db                	test   %ebx,%ebx
   140001333:	0f 8e 65 01 00 00    	jle    14000149e <__tmainCRTStartup+0x31e>
   140001339:	49 83 ec 08          	sub    $0x8,%r12
   14000133d:	31 db                	xor    %ebx,%ebx
   14000133f:	90                   	nop
   140001340:	48 8b 0c 1f          	mov    (%rdi,%rbx,1),%rcx
   140001344:	e8 a7 14 00 00       	call   1400027f0 <strlen>
   140001349:	48 8d 70 01          	lea    0x1(%rax),%rsi
   14000134d:	48 89 f1             	mov    %rsi,%rcx
   140001350:	e8 83 14 00 00       	call   1400027d8 <malloc>
   140001355:	49 89 f0             	mov    %rsi,%r8
   140001358:	48 89 44 1d 00       	mov    %rax,0x0(%rbp,%rbx,1)
   14000135d:	48 8b 14 1f          	mov    (%rdi,%rbx,1),%rdx
   140001361:	48 89 c1             	mov    %rax,%rcx
   140001364:	48 83 c3 08          	add    $0x8,%rbx
   140001368:	e8 73 14 00 00       	call   1400027e0 <memcpy>
   14000136d:	4c 39 e3             	cmp    %r12,%rbx
   140001370:	75 ce                	jne    140001340 <__tmainCRTStartup+0x1c0>
   140001372:	48 01 eb             	add    %rbp,%rbx
   140001375:	48 c7 03 00 00 00 00 	movq   $0x0,(%rbx)
   14000137c:	48 89 2d ad 5c 00 00 	mov    %rbp,0x5cad(%rip)        # 140007030 <argv>
   140001383:	e8 78 03 00 00       	call   140001700 <__main>
   140001388:	48 8b 05 31 30 00 00 	mov    0x3031(%rip),%rax        # 1400043c0 <.refptr.__imp___initenv>
   14000138f:	4c 8b 05 92 5c 00 00 	mov    0x5c92(%rip),%r8        # 140007028 <envp>
   140001396:	8b 0d 9c 5c 00 00    	mov    0x5c9c(%rip),%ecx        # 140007038 <argc>
   14000139c:	48 8b 00             	mov    (%rax),%rax
   14000139f:	4c 89 00             	mov    %r8,(%rax)
   1400013a2:	48 8b 15 87 5c 00 00 	mov    0x5c87(%rip),%rdx        # 140007030 <argv>
   1400013a9:	e8 a9 01 00 00       	call   140001557 <main>
   1400013ae:	8b 0d 6c 5c 00 00    	mov    0x5c6c(%rip),%ecx        # 140007020 <managedapp>
   1400013b4:	89 05 6a 5c 00 00    	mov    %eax,0x5c6a(%rip)        # 140007024 <mainret>
   1400013ba:	85 c9                	test   %ecx,%ecx
   1400013bc:	0f 84 e4 00 00 00    	je     1400014a6 <__tmainCRTStartup+0x326>
   1400013c2:	8b 15 54 5c 00 00    	mov    0x5c54(%rip),%edx        # 14000701c <has_cctor>
   1400013c8:	85 d2                	test   %edx,%edx
   1400013ca:	0f 84 90 00 00 00    	je     140001460 <__tmainCRTStartup+0x2e0>
   1400013d0:	48 81 c4 90 00 00 00 	add    $0x90,%rsp
   1400013d7:	5b                   	pop    %rbx
   1400013d8:	5e                   	pop    %rsi
   1400013d9:	5f                   	pop    %rdi
   1400013da:	5d                   	pop    %rbp
   1400013db:	41 5c                	pop    %r12
   1400013dd:	c3                   	ret
   1400013de:	66 90                	xchg   %ax,%ax
   1400013e0:	0f b7 44 24 60       	movzwl 0x60(%rsp),%eax
   1400013e5:	e9 1e ff ff ff       	jmp    140001308 <__tmainCRTStartup+0x188>
   1400013ea:	66 0f 1f 44 00 00    	nopw   0x0(%rax,%rax,1)
   1400013f0:	48 8b 35 69 30 00 00 	mov    0x3069(%rip),%rsi        # 140004460 <.refptr.__native_startup_state>
   1400013f7:	bd 01 00 00 00       	mov    $0x1,%ebp
   1400013fc:	8b 06                	mov    (%rsi),%eax
   1400013fe:	83 f8 01             	cmp    $0x1,%eax
   140001401:	0f 85 03 fe ff ff    	jne    14000120a <__tmainCRTStartup+0x8a>
   140001407:	b9 1f 00 00 00       	mov    $0x1f,%ecx
   14000140c:	e8 77 13 00 00       	call   140002788 <_amsg_exit>
   140001411:	8b 06                	mov    (%rsi),%eax
   140001413:	83 f8 01             	cmp    $0x1,%eax
   140001416:	0f 85 0d fe ff ff    	jne    140001229 <__tmainCRTStartup+0xa9>
   14000141c:	48 8b 15 5d 30 00 00 	mov    0x305d(%rip),%rdx        # 140004480 <.refptr.__xc_z>
   140001423:	48 8b 0d 46 30 00 00 	mov    0x3046(%rip),%rcx        # 140004470 <.refptr.__xc_a>
   14000142a:	e8 69 13 00 00       	call   140002798 <_initterm>
   14000142f:	c7 06 02 00 00 00    	movl   $0x2,(%rsi)
   140001435:	85 ed                	test   %ebp,%ebp
   140001437:	0f 85 f4 fd ff ff    	jne    140001231 <__tmainCRTStartup+0xb1>
   14000143d:	31 c0                	xor    %eax,%eax
   14000143f:	48 87 03             	xchg   %rax,(%rbx)
   140001442:	e9 ea fd ff ff       	jmp    140001231 <__tmainCRTStartup+0xb1>
   140001447:	66 0f 1f 84 00 00 00 	nopw   0x0(%rax,%rax,1)
   14000144e:	00 00 
   140001450:	48 89 d1             	mov    %rdx,%rcx
   140001453:	ff 15 6f 6d 00 00    	call   *0x6d6f(%rip)        # 1400081c8 <__imp_GetStartupInfoA>
   140001459:	e9 54 fd ff ff       	jmp    1400011b2 <__tmainCRTStartup+0x32>
   14000145e:	66 90                	xchg   %ax,%ax
   140001460:	e8 2b 13 00 00       	call   140002790 <_cexit>
   140001465:	8b 05 b9 5b 00 00    	mov    0x5bb9(%rip),%eax        # 140007024 <mainret>
   14000146b:	48 81 c4 90 00 00 00 	add    $0x90,%rsp
   140001472:	5b                   	pop    %rbx
   140001473:	5e                   	pop    %rsi
   140001474:	5f                   	pop    %rdi
   140001475:	5d                   	pop    %rbp
   140001476:	41 5c                	pop    %r12
   140001478:	c3                   	ret
   140001479:	0f 1f 80 00 00 00 00 	nopl   0x0(%rax)
   140001480:	48 8b 15 19 30 00 00 	mov    0x3019(%rip),%rdx        # 1400044a0 <.refptr.__xi_z>
   140001487:	48 8b 0d 02 30 00 00 	mov    0x3002(%rip),%rcx        # 140004490 <.refptr.__xi_a>
   14000148e:	c7 06 01 00 00 00    	movl   $0x1,(%rsi)
   140001494:	e8 ff 12 00 00       	call   140002798 <_initterm>
   140001499:	e9 80 fd ff ff       	jmp    14000121e <__tmainCRTStartup+0x9e>
   14000149e:	48 89 c3             	mov    %rax,%rbx
   1400014a1:	e9 cf fe ff ff       	jmp    140001375 <__tmainCRTStartup+0x1f5>
   1400014a6:	89 c1                	mov    %eax,%ecx
   1400014a8:	e8 0b 13 00 00       	call   1400027b8 <exit>
   1400014ad:	90                   	nop
   1400014ae:	66 90                	xchg   %ax,%ax

00000001400014b0 <WinMainCRTStartup>:
   1400014b0:	48 83 ec 28          	sub    $0x28,%rsp

00000001400014b4 <.l_startw>:
   1400014b4:	48 8b 05 45 2f 00 00 	mov    0x2f45(%rip),%rax        # 140004400 <.refptr.__mingw_app_type>
   1400014bb:	c7 00 01 00 00 00    	movl   $0x1,(%rax)
   1400014c1:	e8 ba fc ff ff       	call   140001180 <__tmainCRTStartup>
   1400014c6:	90                   	nop

00000001400014c7 <.l_endw>:
   1400014c7:	90                   	nop
   1400014c8:	48 83 c4 28          	add    $0x28,%rsp
   1400014cc:	c3                   	ret
   1400014cd:	0f 1f 00             	nopl   (%rax)

00000001400014d0 <mainCRTStartup>:
   1400014d0:	48 83 ec 28          	sub    $0x28,%rsp

00000001400014d4 <.l_start>:
   1400014d4:	48 8b 05 25 2f 00 00 	mov    0x2f25(%rip),%rax        # 140004400 <.refptr.__mingw_app_type>
   1400014db:	c7 00 00 00 00 00    	movl   $0x0,(%rax)
   1400014e1:	e8 9a fc ff ff       	call   140001180 <__tmainCRTStartup>
   1400014e6:	90                   	nop

00000001400014e7 <.l_end>:
   1400014e7:	90                   	nop
   1400014e8:	48 83 c4 28          	add    $0x28,%rsp
   1400014ec:	c3                   	ret
   1400014ed:	0f 1f 00             	nopl   (%rax)

00000001400014f0 <atexit>:
   1400014f0:	48 83 ec 28          	sub    $0x28,%rsp
   1400014f4:	e8 a7 12 00 00       	call   1400027a0 <_onexit>
   1400014f9:	48 83 f8 01          	cmp    $0x1,%rax
   1400014fd:	19 c0                	sbb    %eax,%eax
   1400014ff:	48 83 c4 28          	add    $0x28,%rsp
   140001503:	c3                   	ret
   140001504:	90                   	nop
   140001505:	90                   	nop
   140001506:	90                   	nop
   140001507:	90                   	nop
   140001508:	90                   	nop
   140001509:	90                   	nop
   14000150a:	90                   	nop
   14000150b:	90                   	nop
   14000150c:	90                   	nop
   14000150d:	90                   	nop
   14000150e:	90                   	nop
   14000150f:	90                   	nop

0000000140001510 <__gcc_register_frame>:
   140001510:	48 8d 0d 09 00 00 00 	lea    0x9(%rip),%rcx        # 140001520 <__gcc_deregister_frame>
   140001517:	e9 d4 ff ff ff       	jmp    1400014f0 <atexit>
   14000151c:	0f 1f 40 00          	nopl   0x0(%rax)

0000000140001520 <__gcc_deregister_frame>:
   140001520:	c3                   	ret
   140001521:	90                   	nop
   140001522:	90                   	nop
   140001523:	90                   	nop
   140001524:	90                   	nop
   140001525:	90                   	nop
   140001526:	90                   	nop
   140001527:	90                   	nop
   140001528:	90                   	nop
   140001529:	90                   	nop
   14000152a:	90                   	nop
   14000152b:	90                   	nop
   14000152c:	90                   	nop
   14000152d:	90                   	nop
   14000152e:	90                   	nop
   14000152f:	90                   	nop

0000000140001530 <_Z3addyy>:
   140001530:	55                   	push   %rbp
   140001531:	48 89 e5             	mov    %rsp,%rbp
   140001534:	48 89 4d 10          	mov    %rcx,0x10(%rbp)
   140001538:	48 89 55 18          	mov    %rdx,0x18(%rbp)
   14000153c:	48 8b 55 10          	mov    0x10(%rbp),%rdx
   140001540:	48 8b 45 18          	mov    0x18(%rbp),%rax
   140001544:	48 01 d0             	add    %rdx,%rax
   140001547:	5d                   	pop    %rbp
   140001548:	c3                   	ret

0000000140001549 <_Z1fi>:
   140001549:	55                   	push   %rbp
   14000154a:	48 89 e5             	mov    %rsp,%rbp
   14000154d:	89 4d 10             	mov    %ecx,0x10(%rbp)
   140001550:	8b 45 10             	mov    0x10(%rbp),%eax
   140001553:	01 c0                	add    %eax,%eax
   140001555:	5d                   	pop    %rbp
   140001556:	c3                   	ret

0000000140001557 <main>:
   140001557:	55                   	push   %rbp
   140001558:	48 89 e5             	mov    %rsp,%rbp
   14000155b:	48 83 ec 30          	sub    $0x30,%rsp
   14000155f:	e8 9c 01 00 00       	call   140001700 <__main>
   140001564:	b9 03 00 00 00       	mov    $0x3,%ecx
   140001569:	e8 db ff ff ff       	call   140001549 <_Z1fi>
   14000156e:	89 c2                	mov    %eax,%edx
   140001570:	48 8b 05 e9 2d 00 00 	mov    0x2de9(%rip),%rax        # 140004360 <__fu0__ZSt4cout>
   140001577:	48 89 c1             	mov    %rax,%rcx
   14000157a:	e8 c9 00 00 00       	call   140001648 <_ZNSolsEi>
   14000157f:	ba 0a 00 00 00       	mov    $0xa,%edx
   140001584:	48 89 c1             	mov    %rax,%rcx
   140001587:	e8 a4 00 00 00       	call   140001630 <_ZStlsISt11char_traitsIcEERSt13basic_ostreamIcT_ES5_c>
   14000158c:	48 c7 45 f8 05 00 00 	movq   $0x5,-0x8(%rbp)
   140001593:	00 
   140001594:	ba 03 00 00 00       	mov    $0x3,%edx
   140001599:	b9 02 00 00 00       	mov    $0x2,%ecx
   14000159e:	e8 8d ff ff ff       	call   140001530 <_Z3addyy>
   1400015a3:	48 89 45 f0          	mov    %rax,-0x10(%rbp)
   1400015a7:	b8 00 00 00 00       	mov    $0x0,%eax
   1400015ac:	48 83 c4 30          	add    $0x30,%rsp
   1400015b0:	5d                   	pop    %rbp
   1400015b1:	c3                   	ret

00000001400015b2 <__tcf_0>:
   1400015b2:	55                   	push   %rbp
   1400015b3:	48 89 e5             	mov    %rsp,%rbp
   1400015b6:	48 83 ec 20          	sub    $0x20,%rsp
   1400015ba:	48 8d 05 7f 5a 00 00 	lea    0x5a7f(%rip),%rax        # 140007040 <_ZStL8__ioinit>
   1400015c1:	48 89 c1             	mov    %rax,%rcx
   1400015c4:	e8 6f 00 00 00       	call   140001638 <_ZNSt8ios_base4InitD1Ev>
   1400015c9:	90                   	nop
   1400015ca:	48 83 c4 20          	add    $0x20,%rsp
   1400015ce:	5d                   	pop    %rbp
   1400015cf:	c3                   	ret

00000001400015d0 <_Z41__static_initialization_and_destruction_0ii>:
   1400015d0:	55                   	push   %rbp
   1400015d1:	48 89 e5             	mov    %rsp,%rbp
   1400015d4:	48 83 ec 20          	sub    $0x20,%rsp
   1400015d8:	89 4d 10             	mov    %ecx,0x10(%rbp)
   1400015db:	89 55 18             	mov    %edx,0x18(%rbp)
   1400015de:	83 7d 10 01          	cmpl   $0x1,0x10(%rbp)
   1400015e2:	75 27                	jne    14000160b <_Z41__static_initialization_and_destruction_0ii+0x3b>
   1400015e4:	81 7d 18 ff ff 00 00 	cmpl   $0xffff,0x18(%rbp)
   1400015eb:	75 1e                	jne    14000160b <_Z41__static_initialization_and_destruction_0ii+0x3b>
   1400015ed:	48 8d 05 4c 5a 00 00 	lea    0x5a4c(%rip),%rax        # 140007040 <_ZStL8__ioinit>
   1400015f4:	48 89 c1             	mov    %rax,%rcx
   1400015f7:	e8 44 00 00 00       	call   140001640 <_ZNSt8ios_base4InitC1Ev>
   1400015fc:	48 8d 05 af ff ff ff 	lea    -0x51(%rip),%rax        # 1400015b2 <__tcf_0>
   140001603:	48 89 c1             	mov    %rax,%rcx
   140001606:	e8 e5 fe ff ff       	call   1400014f0 <atexit>
   14000160b:	90                   	nop
   14000160c:	48 83 c4 20          	add    $0x20,%rsp
   140001610:	5d                   	pop    %rbp
   140001611:	c3                   	ret

0000000140001612 <_GLOBAL__sub_I__Z3addyy>:
   140001612:	55                   	push   %rbp
   140001613:	48 89 e5             	mov    %rsp,%rbp
   140001616:	48 83 ec 20          	sub    $0x20,%rsp
   14000161a:	ba ff ff 00 00       	mov    $0xffff,%edx
   14000161f:	b9 01 00 00 00       	mov    $0x1,%ecx
   140001624:	e8 a7 ff ff ff       	call   1400015d0 <_Z41__static_initialization_and_destruction_0ii>
   140001629:	90                   	nop
   14000162a:	48 83 c4 20          	add    $0x20,%rsp
   14000162e:	5d                   	pop    %rbp
   14000162f:	c3                   	ret

0000000140001630 <_ZStlsISt11char_traitsIcEERSt13basic_ostreamIcT_ES5_c>:
   140001630:	ff 25 ca 6c 00 00    	jmp    *0x6cca(%rip)        # 140008300 <__imp__ZStlsISt11char_traitsIcEERSt13basic_ostreamIcT_ES5_c>
   140001636:	90                   	nop
   140001637:	90                   	nop

0000000140001638 <_ZNSt8ios_base4InitD1Ev>:
   140001638:	ff 25 b2 6c 00 00    	jmp    *0x6cb2(%rip)        # 1400082f0 <__imp__ZNSt8ios_base4InitD1Ev>
   14000163e:	90                   	nop
   14000163f:	90                   	nop

0000000140001640 <_ZNSt8ios_base4InitC1Ev>:
   140001640:	ff 25 a2 6c 00 00    	jmp    *0x6ca2(%rip)        # 1400082e8 <__imp__ZNSt8ios_base4InitC1Ev>
   140001646:	90                   	nop
   140001647:	90                   	nop

0000000140001648 <_ZNSolsEi>:
   140001648:	ff 25 92 6c 00 00    	jmp    *0x6c92(%rip)        # 1400082e0 <__imp__ZNSolsEi>
   14000164e:	90                   	nop
   14000164f:	90                   	nop

0000000140001650 <__do_global_dtors>:
   140001650:	48 83 ec 28          	sub    $0x28,%rsp
   140001654:	48 8b 05 b5 19 00 00 	mov    0x19b5(%rip),%rax        # 140003010 <p.0>
   14000165b:	48 8b 00             	mov    (%rax),%rax
   14000165e:	48 85 c0             	test   %rax,%rax
   140001661:	74 22                	je     140001685 <__do_global_dtors+0x35>
   140001663:	0f 1f 44 00 00       	nopl   0x0(%rax,%rax,1)
   140001668:	ff d0                	call   *%rax
   14000166a:	48 8b 05 9f 19 00 00 	mov    0x199f(%rip),%rax        # 140003010 <p.0>
   140001671:	48 8d 50 08          	lea    0x8(%rax),%rdx
   140001675:	48 8b 40 08          	mov    0x8(%rax),%rax
   140001679:	48 89 15 90 19 00 00 	mov    %rdx,0x1990(%rip)        # 140003010 <p.0>
   140001680:	48 85 c0             	test   %rax,%rax
   140001683:	75 e3                	jne    140001668 <__do_global_dtors+0x18>
   140001685:	48 83 c4 28          	add    $0x28,%rsp
   140001689:	c3                   	ret
   14000168a:	66 0f 1f 44 00 00    	nopw   0x0(%rax,%rax,1)

0000000140001690 <__do_global_ctors>:
   140001690:	56                   	push   %rsi
   140001691:	53                   	push   %rbx
   140001692:	48 83 ec 28          	sub    $0x28,%rsp
   140001696:	48 8b 15 d3 2c 00 00 	mov    0x2cd3(%rip),%rdx        # 140004370 <.refptr.__CTOR_LIST__>
   14000169d:	48 8b 02             	mov    (%rdx),%rax
   1400016a0:	89 c1                	mov    %eax,%ecx
   1400016a2:	83 f8 ff             	cmp    $0xffffffff,%eax
   1400016a5:	74 39                	je     1400016e0 <__do_global_ctors+0x50>
   1400016a7:	85 c9                	test   %ecx,%ecx
   1400016a9:	74 20                	je     1400016cb <__do_global_ctors+0x3b>
   1400016ab:	89 c8                	mov    %ecx,%eax
   1400016ad:	83 e9 01             	sub    $0x1,%ecx
   1400016b0:	48 8d 1c c2          	lea    (%rdx,%rax,8),%rbx
   1400016b4:	48 29 c8             	sub    %rcx,%rax
   1400016b7:	48 8d 74 c2 f8       	lea    -0x8(%rdx,%rax,8),%rsi
   1400016bc:	0f 1f 40 00          	nopl   0x0(%rax)
   1400016c0:	ff 13                	call   *(%rbx)
   1400016c2:	48 83 eb 08          	sub    $0x8,%rbx
   1400016c6:	48 39 f3             	cmp    %rsi,%rbx
   1400016c9:	75 f5                	jne    1400016c0 <__do_global_ctors+0x30>
   1400016cb:	48 8d 0d 7e ff ff ff 	lea    -0x82(%rip),%rcx        # 140001650 <__do_global_dtors>
   1400016d2:	48 83 c4 28          	add    $0x28,%rsp
   1400016d6:	5b                   	pop    %rbx
   1400016d7:	5e                   	pop    %rsi
   1400016d8:	e9 13 fe ff ff       	jmp    1400014f0 <atexit>
   1400016dd:	0f 1f 00             	nopl   (%rax)
   1400016e0:	31 c0                	xor    %eax,%eax
   1400016e2:	66 0f 1f 44 00 00    	nopw   0x0(%rax,%rax,1)
   1400016e8:	44 8d 40 01          	lea    0x1(%rax),%r8d
   1400016ec:	89 c1                	mov    %eax,%ecx
   1400016ee:	4a 83 3c c2 00       	cmpq   $0x0,(%rdx,%r8,8)
   1400016f3:	4c 89 c0             	mov    %r8,%rax
   1400016f6:	75 f0                	jne    1400016e8 <__do_global_ctors+0x58>
   1400016f8:	eb ad                	jmp    1400016a7 <__do_global_ctors+0x17>
   1400016fa:	66 0f 1f 44 00 00    	nopw   0x0(%rax,%rax,1)

0000000140001700 <__main>:
   140001700:	8b 05 4a 59 00 00    	mov    0x594a(%rip),%eax        # 140007050 <initialized>
   140001706:	85 c0                	test   %eax,%eax
   140001708:	74 06                	je     140001710 <__main+0x10>
   14000170a:	c3                   	ret
   14000170b:	0f 1f 44 00 00       	nopl   0x0(%rax,%rax,1)
   140001710:	c7 05 36 59 00 00 01 	movl   $0x1,0x5936(%rip)        # 140007050 <initialized>
   140001717:	00 00 00 
   14000171a:	e9 71 ff ff ff       	jmp    140001690 <__do_global_ctors>
   14000171f:	90                   	nop

0000000140001720 <_setargv>:
   140001720:	31 c0                	xor    %eax,%eax
   140001722:	c3                   	ret
   140001723:	90                   	nop
   140001724:	90                   	nop
   140001725:	90                   	nop
   140001726:	90                   	nop
   140001727:	90                   	nop
   140001728:	90                   	nop
   140001729:	90                   	nop
   14000172a:	90                   	nop
   14000172b:	90                   	nop
   14000172c:	90                   	nop
   14000172d:	90                   	nop
   14000172e:	90                   	nop
   14000172f:	90                   	nop

0000000140001730 <__dyn_tls_dtor>:
   140001730:	48 83 ec 28          	sub    $0x28,%rsp
   140001734:	83 fa 03             	cmp    $0x3,%edx
   140001737:	74 17                	je     140001750 <__dyn_tls_dtor+0x20>
   140001739:	85 d2                	test   %edx,%edx
   14000173b:	74 13                	je     140001750 <__dyn_tls_dtor+0x20>
   14000173d:	b8 01 00 00 00       	mov    $0x1,%eax
   140001742:	48 83 c4 28          	add    $0x28,%rsp
   140001746:	c3                   	ret
   140001747:	66 0f 1f 84 00 00 00 	nopw   0x0(%rax,%rax,1)
   14000174e:	00 00 
   140001750:	e8 5b 0a 00 00       	call   1400021b0 <__mingw_TLScallback>
   140001755:	b8 01 00 00 00       	mov    $0x1,%eax
   14000175a:	48 83 c4 28          	add    $0x28,%rsp
   14000175e:	c3                   	ret
   14000175f:	90                   	nop

0000000140001760 <__dyn_tls_init>:
   140001760:	56                   	push   %rsi
   140001761:	53                   	push   %rbx
   140001762:	48 83 ec 28          	sub    $0x28,%rsp
   140001766:	48 8b 05 d3 2b 00 00 	mov    0x2bd3(%rip),%rax        # 140004340 <.refptr._CRT_MT>
   14000176d:	83 38 02             	cmpl   $0x2,(%rax)
   140001770:	74 06                	je     140001778 <__dyn_tls_init+0x18>
   140001772:	c7 00 02 00 00 00    	movl   $0x2,(%rax)
   140001778:	83 fa 02             	cmp    $0x2,%edx
   14000177b:	74 13                	je     140001790 <__dyn_tls_init+0x30>
   14000177d:	83 fa 01             	cmp    $0x1,%edx
   140001780:	74 4e                	je     1400017d0 <__dyn_tls_init+0x70>
   140001782:	b8 01 00 00 00       	mov    $0x1,%eax
   140001787:	48 83 c4 28          	add    $0x28,%rsp
   14000178b:	5b                   	pop    %rbx
   14000178c:	5e                   	pop    %rsi
   14000178d:	c3                   	ret
   14000178e:	66 90                	xchg   %ax,%ax
   140001790:	48 8d 1d c1 78 00 00 	lea    0x78c1(%rip),%rbx        # 140009058 <__xd_z>
   140001797:	48 8d 35 ba 78 00 00 	lea    0x78ba(%rip),%rsi        # 140009058 <__xd_z>
   14000179e:	48 39 de             	cmp    %rbx,%rsi
   1400017a1:	74 df                	je     140001782 <__dyn_tls_init+0x22>
   1400017a3:	0f 1f 44 00 00       	nopl   0x0(%rax,%rax,1)
   1400017a8:	48 8b 03             	mov    (%rbx),%rax
   1400017ab:	48 85 c0             	test   %rax,%rax
   1400017ae:	74 02                	je     1400017b2 <__dyn_tls_init+0x52>
   1400017b0:	ff d0                	call   *%rax
   1400017b2:	48 83 c3 08          	add    $0x8,%rbx
   1400017b6:	48 39 de             	cmp    %rbx,%rsi
   1400017b9:	75 ed                	jne    1400017a8 <__dyn_tls_init+0x48>
   1400017bb:	b8 01 00 00 00       	mov    $0x1,%eax
   1400017c0:	48 83 c4 28          	add    $0x28,%rsp
   1400017c4:	5b                   	pop    %rbx
   1400017c5:	5e                   	pop    %rsi
   1400017c6:	c3                   	ret
   1400017c7:	66 0f 1f 84 00 00 00 	nopw   0x0(%rax,%rax,1)
   1400017ce:	00 00 
   1400017d0:	e8 db 09 00 00       	call   1400021b0 <__mingw_TLScallback>
   1400017d5:	b8 01 00 00 00       	mov    $0x1,%eax
   1400017da:	48 83 c4 28          	add    $0x28,%rsp
   1400017de:	5b                   	pop    %rbx
   1400017df:	5e                   	pop    %rsi
   1400017e0:	c3                   	ret
   1400017e1:	66 66 2e 0f 1f 84 00 	data16 cs nopw 0x0(%rax,%rax,1)
   1400017e8:	00 00 00 00 
   1400017ec:	0f 1f 40 00          	nopl   0x0(%rax)

00000001400017f0 <__tlregdtor>:
   1400017f0:	31 c0                	xor    %eax,%eax
   1400017f2:	c3                   	ret
   1400017f3:	90                   	nop
   1400017f4:	90                   	nop
   1400017f5:	90                   	nop
   1400017f6:	90                   	nop
   1400017f7:	90                   	nop
   1400017f8:	90                   	nop
   1400017f9:	90                   	nop
   1400017fa:	90                   	nop
   1400017fb:	90                   	nop
   1400017fc:	90                   	nop
   1400017fd:	90                   	nop
   1400017fe:	90                   	nop
   1400017ff:	90                   	nop

0000000140001800 <_matherr>:
   140001800:	56                   	push   %rsi
   140001801:	53                   	push   %rbx
   140001802:	48 83 ec 78          	sub    $0x78,%rsp
   140001806:	0f 11 74 24 40       	movups %xmm6,0x40(%rsp)
   14000180b:	0f 11 7c 24 50       	movups %xmm7,0x50(%rsp)
   140001810:	44 0f 11 44 24 60    	movups %xmm8,0x60(%rsp)
   140001816:	83 39 06             	cmpl   $0x6,(%rcx)
   140001819:	0f 87 cd 00 00 00    	ja     1400018ec <_matherr+0xec>
   14000181f:	8b 01                	mov    (%rcx),%eax
   140001821:	48 8d 15 5c 29 00 00 	lea    0x295c(%rip),%rdx        # 140004184 <.rdata+0x124>
   140001828:	48 63 04 82          	movslq (%rdx,%rax,4),%rax
   14000182c:	48 01 d0             	add    %rdx,%rax
   14000182f:	ff e0                	jmp    *%rax
   140001831:	0f 1f 80 00 00 00 00 	nopl   0x0(%rax)
   140001838:	48 8d 1d 40 28 00 00 	lea    0x2840(%rip),%rbx        # 14000407f <.rdata+0x1f>
   14000183f:	f2 44 0f 10 41 20    	movsd  0x20(%rcx),%xmm8
   140001845:	f2 0f 10 79 18       	movsd  0x18(%rcx),%xmm7
   14000184a:	f2 0f 10 71 10       	movsd  0x10(%rcx),%xmm6
   14000184f:	48 8b 71 08          	mov    0x8(%rcx),%rsi
   140001853:	b9 02 00 00 00       	mov    $0x2,%ecx
   140001858:	e8 e3 0e 00 00       	call   140002740 <__acrt_iob_func>
   14000185d:	f2 44 0f 11 44 24 30 	movsd  %xmm8,0x30(%rsp)
   140001864:	49 89 d8             	mov    %rbx,%r8
   140001867:	48 8d 15 ea 28 00 00 	lea    0x28ea(%rip),%rdx        # 140004158 <.rdata+0xf8>
   14000186e:	f2 0f 11 7c 24 28    	movsd  %xmm7,0x28(%rsp)
   140001874:	48 89 c1             	mov    %rax,%rcx
   140001877:	49 89 f1             	mov    %rsi,%r9
   14000187a:	f2 0f 11 74 24 20    	movsd  %xmm6,0x20(%rsp)
   140001880:	e8 3b 0f 00 00       	call   1400027c0 <fprintf>
   140001885:	90                   	nop
   140001886:	0f 10 74 24 40       	movups 0x40(%rsp),%xmm6
   14000188b:	0f 10 7c 24 50       	movups 0x50(%rsp),%xmm7
   140001890:	31 c0                	xor    %eax,%eax
   140001892:	44 0f 10 44 24 60    	movups 0x60(%rsp),%xmm8
   140001898:	48 83 c4 78          	add    $0x78,%rsp
   14000189c:	5b                   	pop    %rbx
   14000189d:	5e                   	pop    %rsi
   14000189e:	c3                   	ret
   14000189f:	90                   	nop
   1400018a0:	48 8d 1d b9 27 00 00 	lea    0x27b9(%rip),%rbx        # 140004060 <.rdata>
   1400018a7:	eb 96                	jmp    14000183f <_matherr+0x3f>
   1400018a9:	0f 1f 80 00 00 00 00 	nopl   0x0(%rax)
   1400018b0:	48 8d 1d 09 28 00 00 	lea    0x2809(%rip),%rbx        # 1400040c0 <.rdata+0x60>
   1400018b7:	eb 86                	jmp    14000183f <_matherr+0x3f>
   1400018b9:	0f 1f 80 00 00 00 00 	nopl   0x0(%rax)
   1400018c0:	48 8d 1d d9 27 00 00 	lea    0x27d9(%rip),%rbx        # 1400040a0 <.rdata+0x40>
   1400018c7:	e9 73 ff ff ff       	jmp    14000183f <_matherr+0x3f>
   1400018cc:	0f 1f 40 00          	nopl   0x0(%rax)
   1400018d0:	48 8d 1d 39 28 00 00 	lea    0x2839(%rip),%rbx        # 140004110 <.rdata+0xb0>
   1400018d7:	e9 63 ff ff ff       	jmp    14000183f <_matherr+0x3f>
   1400018dc:	0f 1f 40 00          	nopl   0x0(%rax)
   1400018e0:	48 8d 1d 01 28 00 00 	lea    0x2801(%rip),%rbx        # 1400040e8 <.rdata+0x88>
   1400018e7:	e9 53 ff ff ff       	jmp    14000183f <_matherr+0x3f>
   1400018ec:	48 8d 1d 53 28 00 00 	lea    0x2853(%rip),%rbx        # 140004146 <.rdata+0xe6>
   1400018f3:	e9 47 ff ff ff       	jmp    14000183f <_matherr+0x3f>
   1400018f8:	90                   	nop
   1400018f9:	90                   	nop
   1400018fa:	90                   	nop
   1400018fb:	90                   	nop
   1400018fc:	90                   	nop
   1400018fd:	90                   	nop
   1400018fe:	90                   	nop
   1400018ff:	90                   	nop

0000000140001900 <_fpreset>:
   140001900:	db e3                	fninit
   140001902:	c3                   	ret
   140001903:	90                   	nop
   140001904:	90                   	nop
   140001905:	90                   	nop
   140001906:	90                   	nop
   140001907:	90                   	nop
   140001908:	90                   	nop
   140001909:	90                   	nop
   14000190a:	90                   	nop
   14000190b:	90                   	nop
   14000190c:	90                   	nop
   14000190d:	90                   	nop
   14000190e:	90                   	nop
   14000190f:	90                   	nop

0000000140001910 <__report_error>:
   140001910:	56                   	push   %rsi
   140001911:	53                   	push   %rbx
   140001912:	48 83 ec 38          	sub    $0x38,%rsp
   140001916:	48 89 cb             	mov    %rcx,%rbx
   140001919:	48 8d 44 24 58       	lea    0x58(%rsp),%rax
   14000191e:	b9 02 00 00 00       	mov    $0x2,%ecx
   140001923:	48 89 54 24 58       	mov    %rdx,0x58(%rsp)
   140001928:	4c 89 44 24 60       	mov    %r8,0x60(%rsp)
   14000192d:	4c 89 4c 24 68       	mov    %r9,0x68(%rsp)
   140001932:	48 89 44 24 28       	mov    %rax,0x28(%rsp)
   140001937:	e8 04 0e 00 00       	call   140002740 <__acrt_iob_func>
   14000193c:	41 b8 1b 00 00 00    	mov    $0x1b,%r8d
   140001942:	ba 01 00 00 00       	mov    $0x1,%edx
   140001947:	48 8d 0d 52 28 00 00 	lea    0x2852(%rip),%rcx        # 1400041a0 <.rdata>
   14000194e:	49 89 c1             	mov    %rax,%r9
   140001951:	e8 7a 0e 00 00       	call   1400027d0 <fwrite>
   140001956:	48 8b 74 24 28       	mov    0x28(%rsp),%rsi
   14000195b:	b9 02 00 00 00       	mov    $0x2,%ecx
   140001960:	e8 db 0d 00 00       	call   140002740 <__acrt_iob_func>
   140001965:	48 89 da             	mov    %rbx,%rdx
   140001968:	48 89 c1             	mov    %rax,%rcx
   14000196b:	49 89 f0             	mov    %rsi,%r8
   14000196e:	e8 8d 0e 00 00       	call   140002800 <vfprintf>
   140001973:	e8 30 0e 00 00       	call   1400027a8 <abort>
   140001978:	90                   	nop
   140001979:	0f 1f 80 00 00 00 00 	nopl   0x0(%rax)

0000000140001980 <mark_section_writable>:
   140001980:	57                   	push   %rdi
   140001981:	56                   	push   %rsi
   140001982:	53                   	push   %rbx
   140001983:	48 83 ec 50          	sub    $0x50,%rsp
   140001987:	48 63 35 26 57 00 00 	movslq 0x5726(%rip),%rsi        # 1400070b4 <maxSections>
   14000198e:	48 89 cb             	mov    %rcx,%rbx
   140001991:	85 f6                	test   %esi,%esi
   140001993:	0f 8e 17 01 00 00    	jle    140001ab0 <mark_section_writable+0x130>
   140001999:	48 8b 05 18 57 00 00 	mov    0x5718(%rip),%rax        # 1400070b8 <the_secs>
   1400019a0:	45 31 c9             	xor    %r9d,%r9d
   1400019a3:	48 83 c0 18          	add    $0x18,%rax
   1400019a7:	66 0f 1f 84 00 00 00 	nopw   0x0(%rax,%rax,1)
   1400019ae:	00 00 
   1400019b0:	4c 8b 00             	mov    (%rax),%r8
   1400019b3:	4c 39 c3             	cmp    %r8,%rbx
   1400019b6:	72 13                	jb     1400019cb <mark_section_writable+0x4b>
   1400019b8:	48 8b 50 08          	mov    0x8(%rax),%rdx
   1400019bc:	8b 52 08             	mov    0x8(%rdx),%edx
   1400019bf:	49 01 d0             	add    %rdx,%r8
   1400019c2:	4c 39 c3             	cmp    %r8,%rbx
   1400019c5:	0f 82 8a 00 00 00    	jb     140001a55 <mark_section_writable+0xd5>
   1400019cb:	41 83 c1 01          	add    $0x1,%r9d
   1400019cf:	48 83 c0 28          	add    $0x28,%rax
   1400019d3:	41 39 f1             	cmp    %esi,%r9d
   1400019d6:	75 d8                	jne    1400019b0 <mark_section_writable+0x30>
   1400019d8:	48 89 d9             	mov    %rbx,%rcx
   1400019db:	e8 f0 09 00 00       	call   1400023d0 <__mingw_GetSectionForAddress>
   1400019e0:	48 89 c7             	mov    %rax,%rdi
   1400019e3:	48 85 c0             	test   %rax,%rax
   1400019e6:	0f 84 e6 00 00 00    	je     140001ad2 <mark_section_writable+0x152>
   1400019ec:	48 8b 05 c5 56 00 00 	mov    0x56c5(%rip),%rax        # 1400070b8 <the_secs>
   1400019f3:	48 8d 1c b6          	lea    (%rsi,%rsi,4),%rbx
   1400019f7:	48 c1 e3 03          	shl    $0x3,%rbx
   1400019fb:	48 01 d8             	add    %rbx,%rax
   1400019fe:	48 89 78 20          	mov    %rdi,0x20(%rax)
   140001a02:	c7 00 00 00 00 00    	movl   $0x0,(%rax)
   140001a08:	e8 03 0b 00 00       	call   140002510 <_GetPEImageBase>
   140001a0d:	8b 57 0c             	mov    0xc(%rdi),%edx
   140001a10:	41 b8 30 00 00 00    	mov    $0x30,%r8d
   140001a16:	48 8d 0c 10          	lea    (%rax,%rdx,1),%rcx
   140001a1a:	48 8b 05 97 56 00 00 	mov    0x5697(%rip),%rax        # 1400070b8 <the_secs>
   140001a21:	48 8d 54 24 20       	lea    0x20(%rsp),%rdx
   140001a26:	48 89 4c 18 18       	mov    %rcx,0x18(%rax,%rbx,1)
   140001a2b:	ff 15 cf 67 00 00    	call   *0x67cf(%rip)        # 140008200 <__imp_VirtualQuery>
   140001a31:	48 85 c0             	test   %rax,%rax
   140001a34:	0f 84 7d 00 00 00    	je     140001ab7 <mark_section_writable+0x137>
   140001a3a:	8b 44 24 44          	mov    0x44(%rsp),%eax
   140001a3e:	8d 50 c0             	lea    -0x40(%rax),%edx
   140001a41:	83 e2 bf             	and    $0xffffffbf,%edx
   140001a44:	74 08                	je     140001a4e <mark_section_writable+0xce>
   140001a46:	8d 50 fc             	lea    -0x4(%rax),%edx
   140001a49:	83 e2 fb             	and    $0xfffffffb,%edx
   140001a4c:	75 12                	jne    140001a60 <mark_section_writable+0xe0>
   140001a4e:	83 05 5f 56 00 00 01 	addl   $0x1,0x565f(%rip)        # 1400070b4 <maxSections>
   140001a55:	48 83 c4 50          	add    $0x50,%rsp
   140001a59:	5b                   	pop    %rbx
   140001a5a:	5e                   	pop    %rsi
   140001a5b:	5f                   	pop    %rdi
   140001a5c:	c3                   	ret
   140001a5d:	0f 1f 00             	nopl   (%rax)
   140001a60:	83 f8 02             	cmp    $0x2,%eax
   140001a63:	48 8b 4c 24 20       	mov    0x20(%rsp),%rcx
   140001a68:	48 8b 54 24 38       	mov    0x38(%rsp),%rdx
   140001a6d:	41 b8 40 00 00 00    	mov    $0x40,%r8d
   140001a73:	b8 04 00 00 00       	mov    $0x4,%eax
   140001a78:	44 0f 44 c0          	cmove  %eax,%r8d
   140001a7c:	48 03 1d 35 56 00 00 	add    0x5635(%rip),%rbx        # 1400070b8 <the_secs>
   140001a83:	48 89 4b 08          	mov    %rcx,0x8(%rbx)
   140001a87:	49 89 d9             	mov    %rbx,%r9
   140001a8a:	48 89 53 10          	mov    %rdx,0x10(%rbx)
   140001a8e:	ff 15 64 67 00 00    	call   *0x6764(%rip)        # 1400081f8 <__imp_VirtualProtect>
   140001a94:	85 c0                	test   %eax,%eax
   140001a96:	75 b6                	jne    140001a4e <mark_section_writable+0xce>
   140001a98:	ff 15 22 67 00 00    	call   *0x6722(%rip)        # 1400081c0 <__imp_GetLastError>
   140001a9e:	48 8d 0d 73 27 00 00 	lea    0x2773(%rip),%rcx        # 140004218 <.rdata+0x78>
   140001aa5:	89 c2                	mov    %eax,%edx
   140001aa7:	e8 64 fe ff ff       	call   140001910 <__report_error>
   140001aac:	0f 1f 40 00          	nopl   0x0(%rax)
   140001ab0:	31 f6                	xor    %esi,%esi
   140001ab2:	e9 21 ff ff ff       	jmp    1400019d8 <mark_section_writable+0x58>
   140001ab7:	48 8b 05 fa 55 00 00 	mov    0x55fa(%rip),%rax        # 1400070b8 <the_secs>
   140001abe:	8b 57 08             	mov    0x8(%rdi),%edx
   140001ac1:	48 8d 0d 18 27 00 00 	lea    0x2718(%rip),%rcx        # 1400041e0 <.rdata+0x40>
   140001ac8:	4c 8b 44 18 18       	mov    0x18(%rax,%rbx,1),%r8
   140001acd:	e8 3e fe ff ff       	call   140001910 <__report_error>
   140001ad2:	48 89 da             	mov    %rbx,%rdx
   140001ad5:	48 8d 0d e4 26 00 00 	lea    0x26e4(%rip),%rcx        # 1400041c0 <.rdata+0x20>
   140001adc:	e8 2f fe ff ff       	call   140001910 <__report_error>
   140001ae1:	90                   	nop
   140001ae2:	66 66 2e 0f 1f 84 00 	data16 cs nopw 0x0(%rax,%rax,1)
   140001ae9:	00 00 00 00 
   140001aed:	0f 1f 00             	nopl   (%rax)

0000000140001af0 <_pei386_runtime_relocator>:
   140001af0:	55                   	push   %rbp
   140001af1:	41 57                	push   %r15
   140001af3:	41 56                	push   %r14
   140001af5:	41 55                	push   %r13
   140001af7:	41 54                	push   %r12
   140001af9:	57                   	push   %rdi
   140001afa:	56                   	push   %rsi
   140001afb:	53                   	push   %rbx
   140001afc:	48 83 ec 48          	sub    $0x48,%rsp
   140001b00:	48 8d 6c 24 40       	lea    0x40(%rsp),%rbp
   140001b05:	44 8b 25 a4 55 00 00 	mov    0x55a4(%rip),%r12d        # 1400070b0 <was_init.0>
   140001b0c:	45 85 e4             	test   %r12d,%r12d
   140001b0f:	74 17                	je     140001b28 <_pei386_runtime_relocator+0x38>
   140001b11:	48 8d 65 08          	lea    0x8(%rbp),%rsp
   140001b15:	5b                   	pop    %rbx
   140001b16:	5e                   	pop    %rsi
   140001b17:	5f                   	pop    %rdi
   140001b18:	41 5c                	pop    %r12
   140001b1a:	41 5d                	pop    %r13
   140001b1c:	41 5e                	pop    %r14
   140001b1e:	41 5f                	pop    %r15
   140001b20:	5d                   	pop    %rbp
   140001b21:	c3                   	ret
   140001b22:	66 0f 1f 44 00 00    	nopw   0x0(%rax,%rax,1)
   140001b28:	c7 05 7e 55 00 00 01 	movl   $0x1,0x557e(%rip)        # 1400070b0 <was_init.0>
   140001b2f:	00 00 00 
   140001b32:	e8 19 09 00 00       	call   140002450 <__mingw_GetSectionCount>
   140001b37:	48 98                	cltq
   140001b39:	48 8d 04 80          	lea    (%rax,%rax,4),%rax
   140001b3d:	48 8d 04 c5 0f 00 00 	lea    0xf(,%rax,8),%rax
   140001b44:	00 
   140001b45:	48 83 e0 f0          	and    $0xfffffffffffffff0,%rax
   140001b49:	e8 62 0b 00 00       	call   1400026b0 <___chkstk_ms>
   140001b4e:	4c 8b 2d 2b 28 00 00 	mov    0x282b(%rip),%r13        # 140004380 <.refptr.__RUNTIME_PSEUDO_RELOC_LIST_END__>
   140001b55:	48 8b 1d 34 28 00 00 	mov    0x2834(%rip),%rbx        # 140004390 <.refptr.__RUNTIME_PSEUDO_RELOC_LIST__>
   140001b5c:	c7 05 4e 55 00 00 00 	movl   $0x0,0x554e(%rip)        # 1400070b4 <maxSections>
   140001b63:	00 00 00 
   140001b66:	48 29 c4             	sub    %rax,%rsp
   140001b69:	48 8d 44 24 30       	lea    0x30(%rsp),%rax
   140001b6e:	48 89 05 43 55 00 00 	mov    %rax,0x5543(%rip)        # 1400070b8 <the_secs>
   140001b75:	4c 89 e8             	mov    %r13,%rax
   140001b78:	48 29 d8             	sub    %rbx,%rax
   140001b7b:	48 83 f8 07          	cmp    $0x7,%rax
   140001b7f:	7e 90                	jle    140001b11 <_pei386_runtime_relocator+0x21>
   140001b81:	8b 13                	mov    (%rbx),%edx
   140001b83:	48 83 f8 0b          	cmp    $0xb,%rax
   140001b87:	0f 8f 7b 01 00 00    	jg     140001d08 <_pei386_runtime_relocator+0x218>
   140001b8d:	8b 03                	mov    (%rbx),%eax
   140001b8f:	85 c0                	test   %eax,%eax
   140001b91:	0f 85 69 02 00 00    	jne    140001e00 <_pei386_runtime_relocator+0x310>
   140001b97:	8b 43 04             	mov    0x4(%rbx),%eax
   140001b9a:	85 c0                	test   %eax,%eax
   140001b9c:	0f 85 5e 02 00 00    	jne    140001e00 <_pei386_runtime_relocator+0x310>
   140001ba2:	8b 53 08             	mov    0x8(%rbx),%edx
   140001ba5:	83 fa 01             	cmp    $0x1,%edx
   140001ba8:	0f 85 90 02 00 00    	jne    140001e3e <_pei386_runtime_relocator+0x34e>
   140001bae:	48 83 c3 0c          	add    $0xc,%rbx
   140001bb2:	4c 39 eb             	cmp    %r13,%rbx
   140001bb5:	0f 83 56 ff ff ff    	jae    140001b11 <_pei386_runtime_relocator+0x21>
   140001bbb:	4c 8b 35 ee 27 00 00 	mov    0x27ee(%rip),%r14        # 1400043b0 <.refptr.__image_base__>
   140001bc2:	49 bf ff ff ff 7f ff 	movabs $0xffffffff7fffffff,%r15
   140001bc9:	ff ff ff 
   140001bcc:	eb 54                	jmp    140001c22 <_pei386_runtime_relocator+0x132>
   140001bce:	66 90                	xchg   %ax,%ax
   140001bd0:	0f b6 37             	movzbl (%rdi),%esi
   140001bd3:	81 e1 c0 00 00 00    	and    $0xc0,%ecx
   140001bd9:	40 84 f6             	test   %sil,%sil
   140001bdc:	0f 89 06 02 00 00    	jns    140001de8 <_pei386_runtime_relocator+0x2f8>
   140001be2:	48 81 ce 00 ff ff ff 	or     $0xffffffffffffff00,%rsi
   140001be9:	48 29 c6             	sub    %rax,%rsi
   140001bec:	4c 01 ce             	add    %r9,%rsi
   140001bef:	85 c9                	test   %ecx,%ecx
   140001bf1:	75 17                	jne    140001c0a <_pei386_runtime_relocator+0x11a>
   140001bf3:	48 81 fe ff 00 00 00 	cmp    $0xff,%rsi
   140001bfa:	0f 8f 4f 01 00 00    	jg     140001d4f <_pei386_runtime_relocator+0x25f>
   140001c00:	48 83 fe 80          	cmp    $0xffffffffffffff80,%rsi
   140001c04:	0f 8c 45 01 00 00    	jl     140001d4f <_pei386_runtime_relocator+0x25f>
   140001c0a:	48 89 f9             	mov    %rdi,%rcx
   140001c0d:	e8 6e fd ff ff       	call   140001980 <mark_section_writable>
   140001c12:	40 88 37             	mov    %sil,(%rdi)
   140001c15:	48 83 c3 0c          	add    $0xc,%rbx
   140001c19:	4c 39 eb             	cmp    %r13,%rbx
   140001c1c:	0f 83 8e 00 00 00    	jae    140001cb0 <_pei386_runtime_relocator+0x1c0>
   140001c22:	8b 03                	mov    (%rbx),%eax
   140001c24:	8b 4b 08             	mov    0x8(%rbx),%ecx
   140001c27:	8b 7b 04             	mov    0x4(%rbx),%edi
   140001c2a:	4c 01 f0             	add    %r14,%rax
   140001c2d:	0f b6 d1             	movzbl %cl,%edx
   140001c30:	4c 8b 08             	mov    (%rax),%r9
   140001c33:	4c 01 f7             	add    %r14,%rdi
   140001c36:	83 fa 20             	cmp    $0x20,%edx
   140001c39:	0f 84 29 01 00 00    	je     140001d68 <_pei386_runtime_relocator+0x278>
   140001c3f:	0f 87 eb 00 00 00    	ja     140001d30 <_pei386_runtime_relocator+0x240>
   140001c45:	83 fa 08             	cmp    $0x8,%edx
   140001c48:	74 86                	je     140001bd0 <_pei386_runtime_relocator+0xe0>
   140001c4a:	83 fa 10             	cmp    $0x10,%edx
   140001c4d:	0f 85 df 01 00 00    	jne    140001e32 <_pei386_runtime_relocator+0x342>
   140001c53:	0f b7 37             	movzwl (%rdi),%esi
   140001c56:	81 e1 c0 00 00 00    	and    $0xc0,%ecx
   140001c5c:	66 85 f6             	test   %si,%si
   140001c5f:	0f 89 6b 01 00 00    	jns    140001dd0 <_pei386_runtime_relocator+0x2e0>
   140001c65:	48 81 ce 00 00 ff ff 	or     $0xffffffffffff0000,%rsi
   140001c6c:	48 29 c6             	sub    %rax,%rsi
   140001c6f:	4c 01 ce             	add    %r9,%rsi
   140001c72:	85 c9                	test   %ecx,%ecx
   140001c74:	75 1a                	jne    140001c90 <_pei386_runtime_relocator+0x1a0>
   140001c76:	48 81 fe 00 80 ff ff 	cmp    $0xffffffffffff8000,%rsi
   140001c7d:	0f 8c cc 00 00 00    	jl     140001d4f <_pei386_runtime_relocator+0x25f>
   140001c83:	48 81 fe ff ff 00 00 	cmp    $0xffff,%rsi
   140001c8a:	0f 8f bf 00 00 00    	jg     140001d4f <_pei386_runtime_relocator+0x25f>
   140001c90:	48 89 f9             	mov    %rdi,%rcx
   140001c93:	48 83 c3 0c          	add    $0xc,%rbx
   140001c97:	e8 e4 fc ff ff       	call   140001980 <mark_section_writable>
   140001c9c:	66 89 37             	mov    %si,(%rdi)
   140001c9f:	4c 39 eb             	cmp    %r13,%rbx
   140001ca2:	0f 82 7a ff ff ff    	jb     140001c22 <_pei386_runtime_relocator+0x132>
   140001ca8:	0f 1f 84 00 00 00 00 	nopl   0x0(%rax,%rax,1)
   140001caf:	00 
   140001cb0:	8b 15 fe 53 00 00    	mov    0x53fe(%rip),%edx        # 1400070b4 <maxSections>
   140001cb6:	85 d2                	test   %edx,%edx
   140001cb8:	0f 8e 53 fe ff ff    	jle    140001b11 <_pei386_runtime_relocator+0x21>
   140001cbe:	48 8b 35 33 65 00 00 	mov    0x6533(%rip),%rsi        # 1400081f8 <__imp_VirtualProtect>
   140001cc5:	31 db                	xor    %ebx,%ebx
   140001cc7:	48 8d 7d fc          	lea    -0x4(%rbp),%rdi
   140001ccb:	0f 1f 44 00 00       	nopl   0x0(%rax,%rax,1)
   140001cd0:	48 8b 05 e1 53 00 00 	mov    0x53e1(%rip),%rax        # 1400070b8 <the_secs>
   140001cd7:	48 01 d8             	add    %rbx,%rax
   140001cda:	44 8b 00             	mov    (%rax),%r8d
   140001cdd:	45 85 c0             	test   %r8d,%r8d
   140001ce0:	74 0d                	je     140001cef <_pei386_runtime_relocator+0x1ff>
   140001ce2:	48 8b 50 10          	mov    0x10(%rax),%rdx
   140001ce6:	48 8b 48 08          	mov    0x8(%rax),%rcx
   140001cea:	49 89 f9             	mov    %rdi,%r9
   140001ced:	ff d6                	call   *%rsi
   140001cef:	41 83 c4 01          	add    $0x1,%r12d
   140001cf3:	48 83 c3 28          	add    $0x28,%rbx
   140001cf7:	44 3b 25 b6 53 00 00 	cmp    0x53b6(%rip),%r12d        # 1400070b4 <maxSections>
   140001cfe:	7c d0                	jl     140001cd0 <_pei386_runtime_relocator+0x1e0>
   140001d00:	e9 0c fe ff ff       	jmp    140001b11 <_pei386_runtime_relocator+0x21>
   140001d05:	0f 1f 00             	nopl   (%rax)
   140001d08:	85 d2                	test   %edx,%edx
   140001d0a:	0f 85 f0 00 00 00    	jne    140001e00 <_pei386_runtime_relocator+0x310>
   140001d10:	8b 43 04             	mov    0x4(%rbx),%eax
   140001d13:	89 c2                	mov    %eax,%edx
   140001d15:	0b 53 08             	or     0x8(%rbx),%edx
   140001d18:	0f 85 7c fe ff ff    	jne    140001b9a <_pei386_runtime_relocator+0xaa>
   140001d1e:	48 83 c3 0c          	add    $0xc,%rbx
   140001d22:	e9 66 fe ff ff       	jmp    140001b8d <_pei386_runtime_relocator+0x9d>
   140001d27:	66 0f 1f 84 00 00 00 	nopw   0x0(%rax,%rax,1)
   140001d2e:	00 00 
   140001d30:	83 fa 40             	cmp    $0x40,%edx
   140001d33:	0f 85 f9 00 00 00    	jne    140001e32 <_pei386_runtime_relocator+0x342>
   140001d39:	48 8b 37             	mov    (%rdi),%rsi
   140001d3c:	48 29 c6             	sub    %rax,%rsi
   140001d3f:	4c 01 ce             	add    %r9,%rsi
   140001d42:	81 e1 c0 00 00 00    	and    $0xc0,%ecx
   140001d48:	75 66                	jne    140001db0 <_pei386_runtime_relocator+0x2c0>
   140001d4a:	48 85 f6             	test   %rsi,%rsi
   140001d4d:	78 61                	js     140001db0 <_pei386_runtime_relocator+0x2c0>
   140001d4f:	48 89 74 24 20       	mov    %rsi,0x20(%rsp)
   140001d54:	49 89 f8             	mov    %rdi,%r8
   140001d57:	48 8d 0d 4a 25 00 00 	lea    0x254a(%rip),%rcx        # 1400042a8 <.rdata+0x108>
   140001d5e:	e8 ad fb ff ff       	call   140001910 <__report_error>
   140001d63:	0f 1f 44 00 00       	nopl   0x0(%rax,%rax,1)
   140001d68:	8b 37                	mov    (%rdi),%esi
   140001d6a:	81 e1 c0 00 00 00    	and    $0xc0,%ecx
   140001d70:	85 f6                	test   %esi,%esi
   140001d72:	79 4c                	jns    140001dc0 <_pei386_runtime_relocator+0x2d0>
   140001d74:	49 bb 00 00 00 00 ff 	movabs $0xffffffff00000000,%r11
   140001d7b:	ff ff ff 
   140001d7e:	4c 09 de             	or     %r11,%rsi
   140001d81:	48 29 c6             	sub    %rax,%rsi
   140001d84:	4c 01 ce             	add    %r9,%rsi
   140001d87:	85 c9                	test   %ecx,%ecx
   140001d89:	75 0f                	jne    140001d9a <_pei386_runtime_relocator+0x2aa>
   140001d8b:	4c 39 fe             	cmp    %r15,%rsi
   140001d8e:	7e bf                	jle    140001d4f <_pei386_runtime_relocator+0x25f>
   140001d90:	b8 ff ff ff ff       	mov    $0xffffffff,%eax
   140001d95:	48 39 c6             	cmp    %rax,%rsi
   140001d98:	7f b5                	jg     140001d4f <_pei386_runtime_relocator+0x25f>
   140001d9a:	48 89 f9             	mov    %rdi,%rcx
   140001d9d:	e8 de fb ff ff       	call   140001980 <mark_section_writable>
   140001da2:	89 37                	mov    %esi,(%rdi)
   140001da4:	e9 6c fe ff ff       	jmp    140001c15 <_pei386_runtime_relocator+0x125>
   140001da9:	0f 1f 80 00 00 00 00 	nopl   0x0(%rax)
   140001db0:	48 89 f9             	mov    %rdi,%rcx
   140001db3:	e8 c8 fb ff ff       	call   140001980 <mark_section_writable>
   140001db8:	48 89 37             	mov    %rsi,(%rdi)
   140001dbb:	e9 55 fe ff ff       	jmp    140001c15 <_pei386_runtime_relocator+0x125>
   140001dc0:	48 29 c6             	sub    %rax,%rsi
   140001dc3:	4c 01 ce             	add    %r9,%rsi
   140001dc6:	85 c9                	test   %ecx,%ecx
   140001dc8:	74 c1                	je     140001d8b <_pei386_runtime_relocator+0x29b>
   140001dca:	eb ce                	jmp    140001d9a <_pei386_runtime_relocator+0x2aa>
   140001dcc:	0f 1f 40 00          	nopl   0x0(%rax)
   140001dd0:	48 29 c6             	sub    %rax,%rsi
   140001dd3:	4c 01 ce             	add    %r9,%rsi
   140001dd6:	85 c9                	test   %ecx,%ecx
   140001dd8:	0f 84 98 fe ff ff    	je     140001c76 <_pei386_runtime_relocator+0x186>
   140001dde:	e9 ad fe ff ff       	jmp    140001c90 <_pei386_runtime_relocator+0x1a0>
   140001de3:	0f 1f 44 00 00       	nopl   0x0(%rax,%rax,1)
   140001de8:	48 29 c6             	sub    %rax,%rsi
   140001deb:	4c 01 ce             	add    %r9,%rsi
   140001dee:	85 c9                	test   %ecx,%ecx
   140001df0:	0f 84 fd fd ff ff    	je     140001bf3 <_pei386_runtime_relocator+0x103>
   140001df6:	e9 0f fe ff ff       	jmp    140001c0a <_pei386_runtime_relocator+0x11a>
   140001dfb:	0f 1f 44 00 00       	nopl   0x0(%rax,%rax,1)
   140001e00:	4c 39 eb             	cmp    %r13,%rbx
   140001e03:	0f 83 08 fd ff ff    	jae    140001b11 <_pei386_runtime_relocator+0x21>
   140001e09:	4c 8b 35 a0 25 00 00 	mov    0x25a0(%rip),%r14        # 1400043b0 <.refptr.__image_base__>
   140001e10:	8b 73 04             	mov    0x4(%rbx),%esi
   140001e13:	8b 3b                	mov    (%rbx),%edi
   140001e15:	48 83 c3 08          	add    $0x8,%rbx
   140001e19:	4c 01 f6             	add    %r14,%rsi
   140001e1c:	03 3e                	add    (%rsi),%edi
   140001e1e:	48 89 f1             	mov    %rsi,%rcx
   140001e21:	e8 5a fb ff ff       	call   140001980 <mark_section_writable>
   140001e26:	89 3e                	mov    %edi,(%rsi)
   140001e28:	4c 39 eb             	cmp    %r13,%rbx
   140001e2b:	72 e3                	jb     140001e10 <_pei386_runtime_relocator+0x320>
   140001e2d:	e9 7e fe ff ff       	jmp    140001cb0 <_pei386_runtime_relocator+0x1c0>
   140001e32:	48 8d 0d 3f 24 00 00 	lea    0x243f(%rip),%rcx        # 140004278 <.rdata+0xd8>
   140001e39:	e8 d2 fa ff ff       	call   140001910 <__report_error>
   140001e3e:	48 8d 0d fb 23 00 00 	lea    0x23fb(%rip),%rcx        # 140004240 <.rdata+0xa0>
   140001e45:	e8 c6 fa ff ff       	call   140001910 <__report_error>
   140001e4a:	90                   	nop
   140001e4b:	90                   	nop
   140001e4c:	90                   	nop
   140001e4d:	90                   	nop
   140001e4e:	90                   	nop
   140001e4f:	90                   	nop

0000000140001e50 <__mingw_raise_matherr>:
   140001e50:	48 83 ec 58          	sub    $0x58,%rsp
   140001e54:	48 8b 05 65 52 00 00 	mov    0x5265(%rip),%rax        # 1400070c0 <stUserMathErr>
   140001e5b:	66 0f 14 d3          	unpcklpd %xmm3,%xmm2
   140001e5f:	48 85 c0             	test   %rax,%rax
   140001e62:	74 25                	je     140001e89 <__mingw_raise_matherr+0x39>
   140001e64:	f2 0f 10 84 24 80 00 	movsd  0x80(%rsp),%xmm0
   140001e6b:	00 00 
   140001e6d:	89 4c 24 20          	mov    %ecx,0x20(%rsp)
   140001e71:	48 8d 4c 24 20       	lea    0x20(%rsp),%rcx
   140001e76:	48 89 54 24 28       	mov    %rdx,0x28(%rsp)
   140001e7b:	0f 11 54 24 30       	movups %xmm2,0x30(%rsp)
   140001e80:	f2 0f 11 44 24 40    	movsd  %xmm0,0x40(%rsp)
   140001e86:	ff d0                	call   *%rax
   140001e88:	90                   	nop
   140001e89:	48 83 c4 58          	add    $0x58,%rsp
   140001e8d:	c3                   	ret
   140001e8e:	66 90                	xchg   %ax,%ax

0000000140001e90 <__mingw_setusermatherr>:
   140001e90:	48 89 0d 29 52 00 00 	mov    %rcx,0x5229(%rip)        # 1400070c0 <stUserMathErr>
   140001e97:	e9 e4 08 00 00       	jmp    140002780 <__setusermatherr>
   140001e9c:	90                   	nop
   140001e9d:	90                   	nop
   140001e9e:	90                   	nop
   140001e9f:	90                   	nop

0000000140001ea0 <_gnu_exception_handler>:
   140001ea0:	53                   	push   %rbx
   140001ea1:	48 83 ec 20          	sub    $0x20,%rsp
   140001ea5:	48 8b 11             	mov    (%rcx),%rdx
   140001ea8:	8b 02                	mov    (%rdx),%eax
   140001eaa:	48 89 cb             	mov    %rcx,%rbx
   140001ead:	89 c1                	mov    %eax,%ecx
   140001eaf:	81 e1 ff ff ff 20    	and    $0x20ffffff,%ecx
   140001eb5:	81 f9 43 43 47 20    	cmp    $0x20474343,%ecx
   140001ebb:	0f 84 9f 00 00 00    	je     140001f60 <_gnu_exception_handler+0xc0>
   140001ec1:	3d 96 00 00 c0       	cmp    $0xc0000096,%eax
   140001ec6:	77 77                	ja     140001f3f <_gnu_exception_handler+0x9f>
   140001ec8:	3d 8b 00 00 c0       	cmp    $0xc000008b,%eax
   140001ecd:	76 21                	jbe    140001ef0 <_gnu_exception_handler+0x50>
   140001ecf:	05 73 ff ff 3f       	add    $0x3fffff73,%eax
   140001ed4:	83 f8 09             	cmp    $0x9,%eax
   140001ed7:	77 54                	ja     140001f2d <_gnu_exception_handler+0x8d>
   140001ed9:	48 8d 15 20 24 00 00 	lea    0x2420(%rip),%rdx        # 140004300 <.rdata>
   140001ee0:	48 63 04 82          	movslq (%rdx,%rax,4),%rax
   140001ee4:	48 01 d0             	add    %rdx,%rax
   140001ee7:	ff e0                	jmp    *%rax
   140001ee9:	0f 1f 80 00 00 00 00 	nopl   0x0(%rax)
   140001ef0:	3d 05 00 00 c0       	cmp    $0xc0000005,%eax
   140001ef5:	0f 84 d5 00 00 00    	je     140001fd0 <_gnu_exception_handler+0x130>
   140001efb:	76 3b                	jbe    140001f38 <_gnu_exception_handler+0x98>
   140001efd:	3d 08 00 00 c0       	cmp    $0xc0000008,%eax
   140001f02:	74 29                	je     140001f2d <_gnu_exception_handler+0x8d>
   140001f04:	3d 1d 00 00 c0       	cmp    $0xc000001d,%eax
   140001f09:	75 34                	jne    140001f3f <_gnu_exception_handler+0x9f>
   140001f0b:	31 d2                	xor    %edx,%edx
   140001f0d:	b9 04 00 00 00       	mov    $0x4,%ecx
   140001f12:	e8 d1 08 00 00       	call   1400027e8 <signal>
   140001f17:	48 83 f8 01          	cmp    $0x1,%rax
   140001f1b:	0f 84 d6 00 00 00    	je     140001ff7 <_gnu_exception_handler+0x157>
   140001f21:	48 85 c0             	test   %rax,%rax
   140001f24:	74 19                	je     140001f3f <_gnu_exception_handler+0x9f>
   140001f26:	b9 04 00 00 00       	mov    $0x4,%ecx
   140001f2b:	ff d0                	call   *%rax
   140001f2d:	b8 ff ff ff ff       	mov    $0xffffffff,%eax
   140001f32:	48 83 c4 20          	add    $0x20,%rsp
   140001f36:	5b                   	pop    %rbx
   140001f37:	c3                   	ret
   140001f38:	3d 02 00 00 80       	cmp    $0x80000002,%eax
   140001f3d:	74 ee                	je     140001f2d <_gnu_exception_handler+0x8d>
   140001f3f:	48 8b 05 9a 51 00 00 	mov    0x519a(%rip),%rax        # 1400070e0 <__mingw_oldexcpt_handler>
   140001f46:	48 85 c0             	test   %rax,%rax
   140001f49:	74 25                	je     140001f70 <_gnu_exception_handler+0xd0>
   140001f4b:	48 89 d9             	mov    %rbx,%rcx
   140001f4e:	48 83 c4 20          	add    $0x20,%rsp
   140001f52:	5b                   	pop    %rbx
   140001f53:	48 ff e0             	rex.W jmp *%rax
   140001f56:	66 2e 0f 1f 84 00 00 	cs nopw 0x0(%rax,%rax,1)
   140001f5d:	00 00 00 
   140001f60:	f6 42 04 01          	testb  $0x1,0x4(%rdx)
   140001f64:	0f 85 57 ff ff ff    	jne    140001ec1 <_gnu_exception_handler+0x21>
   140001f6a:	eb c1                	jmp    140001f2d <_gnu_exception_handler+0x8d>
   140001f6c:	0f 1f 40 00          	nopl   0x0(%rax)
   140001f70:	31 c0                	xor    %eax,%eax
   140001f72:	48 83 c4 20          	add    $0x20,%rsp
   140001f76:	5b                   	pop    %rbx
   140001f77:	c3                   	ret
   140001f78:	0f 1f 84 00 00 00 00 	nopl   0x0(%rax,%rax,1)
   140001f7f:	00 
   140001f80:	31 d2                	xor    %edx,%edx
   140001f82:	b9 08 00 00 00       	mov    $0x8,%ecx
   140001f87:	e8 5c 08 00 00       	call   1400027e8 <signal>
   140001f8c:	48 83 f8 01          	cmp    $0x1,%rax
   140001f90:	0f 84 89 00 00 00    	je     14000201f <_gnu_exception_handler+0x17f>
   140001f96:	48 85 c0             	test   %rax,%rax
   140001f99:	74 a4                	je     140001f3f <_gnu_exception_handler+0x9f>
   140001f9b:	b9 08 00 00 00       	mov    $0x8,%ecx
   140001fa0:	ff d0                	call   *%rax
   140001fa2:	eb 89                	jmp    140001f2d <_gnu_exception_handler+0x8d>
   140001fa4:	0f 1f 40 00          	nopl   0x0(%rax)
   140001fa8:	31 d2                	xor    %edx,%edx
   140001faa:	b9 08 00 00 00       	mov    $0x8,%ecx
   140001faf:	e8 34 08 00 00       	call   1400027e8 <signal>
   140001fb4:	48 83 f8 01          	cmp    $0x1,%rax
   140001fb8:	75 dc                	jne    140001f96 <_gnu_exception_handler+0xf6>
   140001fba:	ba 01 00 00 00       	mov    $0x1,%edx
   140001fbf:	b9 08 00 00 00       	mov    $0x8,%ecx
   140001fc4:	e8 1f 08 00 00       	call   1400027e8 <signal>
   140001fc9:	e9 5f ff ff ff       	jmp    140001f2d <_gnu_exception_handler+0x8d>
   140001fce:	66 90                	xchg   %ax,%ax
   140001fd0:	31 d2                	xor    %edx,%edx
   140001fd2:	b9 0b 00 00 00       	mov    $0xb,%ecx
   140001fd7:	e8 0c 08 00 00       	call   1400027e8 <signal>
   140001fdc:	48 83 f8 01          	cmp    $0x1,%rax
   140001fe0:	74 29                	je     14000200b <_gnu_exception_handler+0x16b>
   140001fe2:	48 85 c0             	test   %rax,%rax
   140001fe5:	0f 84 54 ff ff ff    	je     140001f3f <_gnu_exception_handler+0x9f>
   140001feb:	b9 0b 00 00 00       	mov    $0xb,%ecx
   140001ff0:	ff d0                	call   *%rax
   140001ff2:	e9 36 ff ff ff       	jmp    140001f2d <_gnu_exception_handler+0x8d>
   140001ff7:	ba 01 00 00 00       	mov    $0x1,%edx
   140001ffc:	b9 04 00 00 00       	mov    $0x4,%ecx
   140002001:	e8 e2 07 00 00       	call   1400027e8 <signal>
   140002006:	e9 22 ff ff ff       	jmp    140001f2d <_gnu_exception_handler+0x8d>
   14000200b:	ba 01 00 00 00       	mov    $0x1,%edx
   140002010:	b9 0b 00 00 00       	mov    $0xb,%ecx
   140002015:	e8 ce 07 00 00       	call   1400027e8 <signal>
   14000201a:	e9 0e ff ff ff       	jmp    140001f2d <_gnu_exception_handler+0x8d>
   14000201f:	ba 01 00 00 00       	mov    $0x1,%edx
   140002024:	b9 08 00 00 00       	mov    $0x8,%ecx
   140002029:	e8 ba 07 00 00       	call   1400027e8 <signal>
   14000202e:	e8 cd f8 ff ff       	call   140001900 <_fpreset>
   140002033:	e9 f5 fe ff ff       	jmp    140001f2d <_gnu_exception_handler+0x8d>
   140002038:	90                   	nop
   140002039:	90                   	nop
   14000203a:	90                   	nop
   14000203b:	90                   	nop
   14000203c:	90                   	nop
   14000203d:	90                   	nop
   14000203e:	90                   	nop
   14000203f:	90                   	nop

0000000140002040 <__mingwthr_run_key_dtors.part.0>:
   140002040:	41 54                	push   %r12
   140002042:	55                   	push   %rbp
   140002043:	57                   	push   %rdi
   140002044:	56                   	push   %rsi
   140002045:	53                   	push   %rbx
   140002046:	48 83 ec 20          	sub    $0x20,%rsp
   14000204a:	4c 8d 25 cf 50 00 00 	lea    0x50cf(%rip),%r12        # 140007120 <__mingwthr_cs>
   140002051:	4c 89 e1             	mov    %r12,%rcx
   140002054:	ff 15 5e 61 00 00    	call   *0x615e(%rip)        # 1400081b8 <__imp_EnterCriticalSection>
   14000205a:	48 8b 1d 9f 50 00 00 	mov    0x509f(%rip),%rbx        # 140007100 <key_dtor_list>
   140002061:	48 85 db             	test   %rbx,%rbx
   140002064:	74 36                	je     14000209c <__mingwthr_run_key_dtors.part.0+0x5c>
   140002066:	48 8b 2d 83 61 00 00 	mov    0x6183(%rip),%rbp        # 1400081f0 <__imp_TlsGetValue>
   14000206d:	48 8b 3d 4c 61 00 00 	mov    0x614c(%rip),%rdi        # 1400081c0 <__imp_GetLastError>
   140002074:	0f 1f 40 00          	nopl   0x0(%rax)
   140002078:	8b 0b                	mov    (%rbx),%ecx
   14000207a:	ff d5                	call   *%rbp
   14000207c:	48 89 c6             	mov    %rax,%rsi
   14000207f:	ff d7                	call   *%rdi
   140002081:	85 c0                	test   %eax,%eax
   140002083:	75 0e                	jne    140002093 <__mingwthr_run_key_dtors.part.0+0x53>
   140002085:	48 85 f6             	test   %rsi,%rsi
   140002088:	74 09                	je     140002093 <__mingwthr_run_key_dtors.part.0+0x53>
   14000208a:	48 8b 43 08          	mov    0x8(%rbx),%rax
   14000208e:	48 89 f1             	mov    %rsi,%rcx
   140002091:	ff d0                	call   *%rax
   140002093:	48 8b 5b 10          	mov    0x10(%rbx),%rbx
   140002097:	48 85 db             	test   %rbx,%rbx
   14000209a:	75 dc                	jne    140002078 <__mingwthr_run_key_dtors.part.0+0x38>
   14000209c:	4c 89 e1             	mov    %r12,%rcx
   14000209f:	48 83 c4 20          	add    $0x20,%rsp
   1400020a3:	5b                   	pop    %rbx
   1400020a4:	5e                   	pop    %rsi
   1400020a5:	5f                   	pop    %rdi
   1400020a6:	5d                   	pop    %rbp
   1400020a7:	41 5c                	pop    %r12
   1400020a9:	48 ff 25 28 61 00 00 	rex.W jmp *0x6128(%rip)        # 1400081d8 <__imp_LeaveCriticalSection>

00000001400020b0 <___w64_mingwthr_add_key_dtor>:
   1400020b0:	57                   	push   %rdi
   1400020b1:	56                   	push   %rsi
   1400020b2:	53                   	push   %rbx
   1400020b3:	48 83 ec 20          	sub    $0x20,%rsp
   1400020b7:	8b 05 4b 50 00 00    	mov    0x504b(%rip),%eax        # 140007108 <__mingwthr_cs_init>
   1400020bd:	89 cf                	mov    %ecx,%edi
   1400020bf:	48 89 d6             	mov    %rdx,%rsi
   1400020c2:	85 c0                	test   %eax,%eax
   1400020c4:	75 0a                	jne    1400020d0 <___w64_mingwthr_add_key_dtor+0x20>
   1400020c6:	31 c0                	xor    %eax,%eax
   1400020c8:	48 83 c4 20          	add    $0x20,%rsp
   1400020cc:	5b                   	pop    %rbx
   1400020cd:	5e                   	pop    %rsi
   1400020ce:	5f                   	pop    %rdi
   1400020cf:	c3                   	ret
   1400020d0:	ba 18 00 00 00       	mov    $0x18,%edx
   1400020d5:	b9 01 00 00 00       	mov    $0x1,%ecx
   1400020da:	e8 d1 06 00 00       	call   1400027b0 <calloc>
   1400020df:	48 89 c3             	mov    %rax,%rbx
   1400020e2:	48 85 c0             	test   %rax,%rax
   1400020e5:	74 33                	je     14000211a <___w64_mingwthr_add_key_dtor+0x6a>
   1400020e7:	48 89 70 08          	mov    %rsi,0x8(%rax)
   1400020eb:	48 8d 35 2e 50 00 00 	lea    0x502e(%rip),%rsi        # 140007120 <__mingwthr_cs>
   1400020f2:	89 38                	mov    %edi,(%rax)
   1400020f4:	48 89 f1             	mov    %rsi,%rcx
   1400020f7:	ff 15 bb 60 00 00    	call   *0x60bb(%rip)        # 1400081b8 <__imp_EnterCriticalSection>
   1400020fd:	48 8b 05 fc 4f 00 00 	mov    0x4ffc(%rip),%rax        # 140007100 <key_dtor_list>
   140002104:	48 89 f1             	mov    %rsi,%rcx
   140002107:	48 89 1d f2 4f 00 00 	mov    %rbx,0x4ff2(%rip)        # 140007100 <key_dtor_list>
   14000210e:	48 89 43 10          	mov    %rax,0x10(%rbx)
   140002112:	ff 15 c0 60 00 00    	call   *0x60c0(%rip)        # 1400081d8 <__imp_LeaveCriticalSection>
   140002118:	eb ac                	jmp    1400020c6 <___w64_mingwthr_add_key_dtor+0x16>
   14000211a:	83 c8 ff             	or     $0xffffffff,%eax
   14000211d:	eb a9                	jmp    1400020c8 <___w64_mingwthr_add_key_dtor+0x18>
   14000211f:	90                   	nop

0000000140002120 <___w64_mingwthr_remove_key_dtor>:
   140002120:	56                   	push   %rsi
   140002121:	53                   	push   %rbx
   140002122:	48 83 ec 28          	sub    $0x28,%rsp
   140002126:	8b 05 dc 4f 00 00    	mov    0x4fdc(%rip),%eax        # 140007108 <__mingwthr_cs_init>
   14000212c:	89 cb                	mov    %ecx,%ebx
   14000212e:	85 c0                	test   %eax,%eax
   140002130:	75 0e                	jne    140002140 <___w64_mingwthr_remove_key_dtor+0x20>
   140002132:	31 c0                	xor    %eax,%eax
   140002134:	48 83 c4 28          	add    $0x28,%rsp
   140002138:	5b                   	pop    %rbx
   140002139:	5e                   	pop    %rsi
   14000213a:	c3                   	ret
   14000213b:	0f 1f 44 00 00       	nopl   0x0(%rax,%rax,1)
   140002140:	48 8d 35 d9 4f 00 00 	lea    0x4fd9(%rip),%rsi        # 140007120 <__mingwthr_cs>
   140002147:	48 89 f1             	mov    %rsi,%rcx
   14000214a:	ff 15 68 60 00 00    	call   *0x6068(%rip)        # 1400081b8 <__imp_EnterCriticalSection>
   140002150:	48 8b 0d a9 4f 00 00 	mov    0x4fa9(%rip),%rcx        # 140007100 <key_dtor_list>
   140002157:	48 85 c9             	test   %rcx,%rcx
   14000215a:	74 27                	je     140002183 <___w64_mingwthr_remove_key_dtor+0x63>
   14000215c:	31 d2                	xor    %edx,%edx
   14000215e:	eb 0b                	jmp    14000216b <___w64_mingwthr_remove_key_dtor+0x4b>
   140002160:	48 89 ca             	mov    %rcx,%rdx
   140002163:	48 85 c0             	test   %rax,%rax
   140002166:	74 1b                	je     140002183 <___w64_mingwthr_remove_key_dtor+0x63>
   140002168:	48 89 c1             	mov    %rax,%rcx
   14000216b:	8b 01                	mov    (%rcx),%eax
   14000216d:	39 d8                	cmp    %ebx,%eax
   14000216f:	48 8b 41 10          	mov    0x10(%rcx),%rax
   140002173:	75 eb                	jne    140002160 <___w64_mingwthr_remove_key_dtor+0x40>
   140002175:	48 85 d2             	test   %rdx,%rdx
   140002178:	74 1e                	je     140002198 <___w64_mingwthr_remove_key_dtor+0x78>
   14000217a:	48 89 42 10          	mov    %rax,0x10(%rdx)
   14000217e:	e8 45 06 00 00       	call   1400027c8 <free>
   140002183:	48 89 f1             	mov    %rsi,%rcx
   140002186:	ff 15 4c 60 00 00    	call   *0x604c(%rip)        # 1400081d8 <__imp_LeaveCriticalSection>
   14000218c:	31 c0                	xor    %eax,%eax
   14000218e:	48 83 c4 28          	add    $0x28,%rsp
   140002192:	5b                   	pop    %rbx
   140002193:	5e                   	pop    %rsi
   140002194:	c3                   	ret
   140002195:	0f 1f 00             	nopl   (%rax)
   140002198:	48 89 05 61 4f 00 00 	mov    %rax,0x4f61(%rip)        # 140007100 <key_dtor_list>
   14000219f:	eb dd                	jmp    14000217e <___w64_mingwthr_remove_key_dtor+0x5e>
   1400021a1:	66 66 2e 0f 1f 84 00 	data16 cs nopw 0x0(%rax,%rax,1)
   1400021a8:	00 00 00 00 
   1400021ac:	0f 1f 40 00          	nopl   0x0(%rax)

00000001400021b0 <__mingw_TLScallback>:
   1400021b0:	53                   	push   %rbx
   1400021b1:	48 83 ec 20          	sub    $0x20,%rsp
   1400021b5:	83 fa 02             	cmp    $0x2,%edx
   1400021b8:	0f 84 b2 00 00 00    	je     140002270 <__mingw_TLScallback+0xc0>
   1400021be:	77 30                	ja     1400021f0 <__mingw_TLScallback+0x40>
   1400021c0:	85 d2                	test   %edx,%edx
   1400021c2:	74 4c                	je     140002210 <__mingw_TLScallback+0x60>
   1400021c4:	8b 05 3e 4f 00 00    	mov    0x4f3e(%rip),%eax        # 140007108 <__mingwthr_cs_init>
   1400021ca:	85 c0                	test   %eax,%eax
   1400021cc:	0f 84 be 00 00 00    	je     140002290 <__mingw_TLScallback+0xe0>
   1400021d2:	c7 05 2c 4f 00 00 01 	movl   $0x1,0x4f2c(%rip)        # 140007108 <__mingwthr_cs_init>
   1400021d9:	00 00 00 
   1400021dc:	b8 01 00 00 00       	mov    $0x1,%eax
   1400021e1:	48 83 c4 20          	add    $0x20,%rsp
   1400021e5:	5b                   	pop    %rbx
   1400021e6:	c3                   	ret
   1400021e7:	66 0f 1f 84 00 00 00 	nopw   0x0(%rax,%rax,1)
   1400021ee:	00 00 
   1400021f0:	83 fa 03             	cmp    $0x3,%edx
   1400021f3:	75 e7                	jne    1400021dc <__mingw_TLScallback+0x2c>
   1400021f5:	8b 05 0d 4f 00 00    	mov    0x4f0d(%rip),%eax        # 140007108 <__mingwthr_cs_init>
   1400021fb:	85 c0                	test   %eax,%eax
   1400021fd:	74 dd                	je     1400021dc <__mingw_TLScallback+0x2c>
   1400021ff:	e8 3c fe ff ff       	call   140002040 <__mingwthr_run_key_dtors.part.0>
   140002204:	eb d6                	jmp    1400021dc <__mingw_TLScallback+0x2c>
   140002206:	66 2e 0f 1f 84 00 00 	cs nopw 0x0(%rax,%rax,1)
   14000220d:	00 00 00 
   140002210:	8b 05 f2 4e 00 00    	mov    0x4ef2(%rip),%eax        # 140007108 <__mingwthr_cs_init>
   140002216:	85 c0                	test   %eax,%eax
   140002218:	75 66                	jne    140002280 <__mingw_TLScallback+0xd0>
   14000221a:	8b 05 e8 4e 00 00    	mov    0x4ee8(%rip),%eax        # 140007108 <__mingwthr_cs_init>
   140002220:	83 f8 01             	cmp    $0x1,%eax
   140002223:	75 b7                	jne    1400021dc <__mingw_TLScallback+0x2c>
   140002225:	48 8b 1d d4 4e 00 00 	mov    0x4ed4(%rip),%rbx        # 140007100 <key_dtor_list>
   14000222c:	48 85 db             	test   %rbx,%rbx
   14000222f:	74 18                	je     140002249 <__mingw_TLScallback+0x99>
   140002231:	0f 1f 80 00 00 00 00 	nopl   0x0(%rax)
   140002238:	48 89 d9             	mov    %rbx,%rcx
   14000223b:	48 8b 5b 10          	mov    0x10(%rbx),%rbx
   14000223f:	e8 84 05 00 00       	call   1400027c8 <free>
   140002244:	48 85 db             	test   %rbx,%rbx
   140002247:	75 ef                	jne    140002238 <__mingw_TLScallback+0x88>
   140002249:	48 8d 0d d0 4e 00 00 	lea    0x4ed0(%rip),%rcx        # 140007120 <__mingwthr_cs>
   140002250:	48 c7 05 a5 4e 00 00 	movq   $0x0,0x4ea5(%rip)        # 140007100 <key_dtor_list>
   140002257:	00 00 00 00 
   14000225b:	c7 05 a3 4e 00 00 00 	movl   $0x0,0x4ea3(%rip)        # 140007108 <__mingwthr_cs_init>
   140002262:	00 00 00 
   140002265:	ff 15 45 5f 00 00    	call   *0x5f45(%rip)        # 1400081b0 <__IAT_start__>
   14000226b:	e9 6c ff ff ff       	jmp    1400021dc <__mingw_TLScallback+0x2c>
   140002270:	e8 8b f6 ff ff       	call   140001900 <_fpreset>
   140002275:	b8 01 00 00 00       	mov    $0x1,%eax
   14000227a:	48 83 c4 20          	add    $0x20,%rsp
   14000227e:	5b                   	pop    %rbx
   14000227f:	c3                   	ret
   140002280:	e8 bb fd ff ff       	call   140002040 <__mingwthr_run_key_dtors.part.0>
   140002285:	eb 93                	jmp    14000221a <__mingw_TLScallback+0x6a>
   140002287:	66 0f 1f 84 00 00 00 	nopw   0x0(%rax,%rax,1)
   14000228e:	00 00 
   140002290:	48 8d 0d 89 4e 00 00 	lea    0x4e89(%rip),%rcx        # 140007120 <__mingwthr_cs>
   140002297:	ff 15 33 5f 00 00    	call   *0x5f33(%rip)        # 1400081d0 <__imp_InitializeCriticalSection>
   14000229d:	e9 30 ff ff ff       	jmp    1400021d2 <__mingw_TLScallback+0x22>
   1400022a2:	90                   	nop
   1400022a3:	90                   	nop
   1400022a4:	90                   	nop
   1400022a5:	90                   	nop
   1400022a6:	90                   	nop
   1400022a7:	90                   	nop
   1400022a8:	90                   	nop
   1400022a9:	90                   	nop
   1400022aa:	90                   	nop
   1400022ab:	90                   	nop
   1400022ac:	90                   	nop
   1400022ad:	90                   	nop
   1400022ae:	90                   	nop
   1400022af:	90                   	nop

00000001400022b0 <_ValidateImageBase>:
   1400022b0:	31 c0                	xor    %eax,%eax
   1400022b2:	66 81 39 4d 5a       	cmpw   $0x5a4d,(%rcx)
   1400022b7:	75 0f                	jne    1400022c8 <_ValidateImageBase+0x18>
   1400022b9:	48 63 51 3c          	movslq 0x3c(%rcx),%rdx
   1400022bd:	48 01 d1             	add    %rdx,%rcx
   1400022c0:	81 39 50 45 00 00    	cmpl   $0x4550,(%rcx)
   1400022c6:	74 08                	je     1400022d0 <_ValidateImageBase+0x20>
   1400022c8:	c3                   	ret
   1400022c9:	0f 1f 80 00 00 00 00 	nopl   0x0(%rax)
   1400022d0:	31 c0                	xor    %eax,%eax
   1400022d2:	66 81 79 18 0b 02    	cmpw   $0x20b,0x18(%rcx)
   1400022d8:	0f 94 c0             	sete   %al
   1400022db:	c3                   	ret
   1400022dc:	0f 1f 40 00          	nopl   0x0(%rax)

00000001400022e0 <_FindPESection>:
   1400022e0:	48 63 41 3c          	movslq 0x3c(%rcx),%rax
   1400022e4:	48 01 c1             	add    %rax,%rcx
   1400022e7:	0f b7 41 14          	movzwl 0x14(%rcx),%eax
   1400022eb:	44 0f b7 41 06       	movzwl 0x6(%rcx),%r8d
   1400022f0:	48 8d 44 01 18       	lea    0x18(%rcx,%rax,1),%rax
   1400022f5:	66 45 85 c0          	test   %r8w,%r8w
   1400022f9:	74 32                	je     14000232d <_FindPESection+0x4d>
   1400022fb:	41 8d 48 ff          	lea    -0x1(%r8),%ecx
   1400022ff:	48 8d 0c 89          	lea    (%rcx,%rcx,4),%rcx
   140002303:	4c 8d 4c c8 28       	lea    0x28(%rax,%rcx,8),%r9
   140002308:	0f 1f 84 00 00 00 00 	nopl   0x0(%rax,%rax,1)
   14000230f:	00 
   140002310:	44 8b 40 0c          	mov    0xc(%rax),%r8d
   140002314:	4c 89 c1             	mov    %r8,%rcx
   140002317:	4c 39 c2             	cmp    %r8,%rdx
   14000231a:	72 08                	jb     140002324 <_FindPESection+0x44>
   14000231c:	03 48 08             	add    0x8(%rax),%ecx
   14000231f:	48 39 ca             	cmp    %rcx,%rdx
   140002322:	72 0b                	jb     14000232f <_FindPESection+0x4f>
   140002324:	48 83 c0 28          	add    $0x28,%rax
   140002328:	4c 39 c8             	cmp    %r9,%rax
   14000232b:	75 e3                	jne    140002310 <_FindPESection+0x30>
   14000232d:	31 c0                	xor    %eax,%eax
   14000232f:	c3                   	ret

0000000140002330 <_FindPESectionByName>:
   140002330:	57                   	push   %rdi
   140002331:	56                   	push   %rsi
   140002332:	53                   	push   %rbx
   140002333:	48 83 ec 20          	sub    $0x20,%rsp
   140002337:	48 89 ce             	mov    %rcx,%rsi
   14000233a:	e8 b1 04 00 00       	call   1400027f0 <strlen>
   14000233f:	48 83 f8 08          	cmp    $0x8,%rax
   140002343:	77 7b                	ja     1400023c0 <_FindPESectionByName+0x90>
   140002345:	48 8b 15 64 20 00 00 	mov    0x2064(%rip),%rdx        # 1400043b0 <.refptr.__image_base__>
   14000234c:	31 db                	xor    %ebx,%ebx
   14000234e:	66 81 3a 4d 5a       	cmpw   $0x5a4d,(%rdx)
   140002353:	75 59                	jne    1400023ae <_FindPESectionByName+0x7e>
   140002355:	48 63 42 3c          	movslq 0x3c(%rdx),%rax
   140002359:	48 01 d0             	add    %rdx,%rax
   14000235c:	81 38 50 45 00 00    	cmpl   $0x4550,(%rax)
   140002362:	75 4a                	jne    1400023ae <_FindPESectionByName+0x7e>
   140002364:	66 81 78 18 0b 02    	cmpw   $0x20b,0x18(%rax)
   14000236a:	75 42                	jne    1400023ae <_FindPESectionByName+0x7e>
   14000236c:	0f b7 50 14          	movzwl 0x14(%rax),%edx
   140002370:	48 8d 5c 10 18       	lea    0x18(%rax,%rdx,1),%rbx
   140002375:	0f b7 50 06          	movzwl 0x6(%rax),%edx
   140002379:	66 85 d2             	test   %dx,%dx
   14000237c:	74 42                	je     1400023c0 <_FindPESectionByName+0x90>
   14000237e:	8d 42 ff             	lea    -0x1(%rdx),%eax
   140002381:	48 8d 04 80          	lea    (%rax,%rax,4),%rax
   140002385:	48 8d 7c c3 28       	lea    0x28(%rbx,%rax,8),%rdi
   14000238a:	eb 0d                	jmp    140002399 <_FindPESectionByName+0x69>
   14000238c:	0f 1f 40 00          	nopl   0x0(%rax)
   140002390:	48 83 c3 28          	add    $0x28,%rbx
   140002394:	48 39 fb             	cmp    %rdi,%rbx
   140002397:	74 27                	je     1400023c0 <_FindPESectionByName+0x90>
   140002399:	41 b8 08 00 00 00    	mov    $0x8,%r8d
   14000239f:	48 89 f2             	mov    %rsi,%rdx
   1400023a2:	48 89 d9             	mov    %rbx,%rcx
   1400023a5:	e8 4e 04 00 00       	call   1400027f8 <strncmp>
   1400023aa:	85 c0                	test   %eax,%eax
   1400023ac:	75 e2                	jne    140002390 <_FindPESectionByName+0x60>
   1400023ae:	48 89 d8             	mov    %rbx,%rax
   1400023b1:	48 83 c4 20          	add    $0x20,%rsp
   1400023b5:	5b                   	pop    %rbx
   1400023b6:	5e                   	pop    %rsi
   1400023b7:	5f                   	pop    %rdi
   1400023b8:	c3                   	ret
   1400023b9:	0f 1f 80 00 00 00 00 	nopl   0x0(%rax)
   1400023c0:	31 db                	xor    %ebx,%ebx
   1400023c2:	48 89 d8             	mov    %rbx,%rax
   1400023c5:	48 83 c4 20          	add    $0x20,%rsp
   1400023c9:	5b                   	pop    %rbx
   1400023ca:	5e                   	pop    %rsi
   1400023cb:	5f                   	pop    %rdi
   1400023cc:	c3                   	ret
   1400023cd:	0f 1f 00             	nopl   (%rax)

00000001400023d0 <__mingw_GetSectionForAddress>:
   1400023d0:	48 8b 15 d9 1f 00 00 	mov    0x1fd9(%rip),%rdx        # 1400043b0 <.refptr.__image_base__>
   1400023d7:	31 c0                	xor    %eax,%eax
   1400023d9:	66 81 3a 4d 5a       	cmpw   $0x5a4d,(%rdx)
   1400023de:	75 10                	jne    1400023f0 <__mingw_GetSectionForAddress+0x20>
   1400023e0:	4c 63 42 3c          	movslq 0x3c(%rdx),%r8
   1400023e4:	49 01 d0             	add    %rdx,%r8
   1400023e7:	41 81 38 50 45 00 00 	cmpl   $0x4550,(%r8)
   1400023ee:	74 08                	je     1400023f8 <__mingw_GetSectionForAddress+0x28>
   1400023f0:	c3                   	ret
   1400023f1:	0f 1f 80 00 00 00 00 	nopl   0x0(%rax)
   1400023f8:	66 41 81 78 18 0b 02 	cmpw   $0x20b,0x18(%r8)
   1400023ff:	75 ef                	jne    1400023f0 <__mingw_GetSectionForAddress+0x20>
   140002401:	41 0f b7 40 14       	movzwl 0x14(%r8),%eax
   140002406:	48 29 d1             	sub    %rdx,%rcx
   140002409:	49 8d 44 00 18       	lea    0x18(%r8,%rax,1),%rax
   14000240e:	45 0f b7 40 06       	movzwl 0x6(%r8),%r8d
   140002413:	66 45 85 c0          	test   %r8w,%r8w
   140002417:	74 34                	je     14000244d <__mingw_GetSectionForAddress+0x7d>
   140002419:	41 8d 50 ff          	lea    -0x1(%r8),%edx
   14000241d:	48 8d 14 92          	lea    (%rdx,%rdx,4),%rdx
   140002421:	4c 8d 4c d0 28       	lea    0x28(%rax,%rdx,8),%r9
   140002426:	66 2e 0f 1f 84 00 00 	cs nopw 0x0(%rax,%rax,1)
   14000242d:	00 00 00 
   140002430:	44 8b 40 0c          	mov    0xc(%rax),%r8d
   140002434:	4c 89 c2             	mov    %r8,%rdx
   140002437:	4c 39 c1             	cmp    %r8,%rcx
   14000243a:	72 08                	jb     140002444 <__mingw_GetSectionForAddress+0x74>
   14000243c:	03 50 08             	add    0x8(%rax),%edx
   14000243f:	48 39 d1             	cmp    %rdx,%rcx
   140002442:	72 ac                	jb     1400023f0 <__mingw_GetSectionForAddress+0x20>
   140002444:	48 83 c0 28          	add    $0x28,%rax
   140002448:	4c 39 c8             	cmp    %r9,%rax
   14000244b:	75 e3                	jne    140002430 <__mingw_GetSectionForAddress+0x60>
   14000244d:	31 c0                	xor    %eax,%eax
   14000244f:	c3                   	ret

0000000140002450 <__mingw_GetSectionCount>:
   140002450:	48 8b 05 59 1f 00 00 	mov    0x1f59(%rip),%rax        # 1400043b0 <.refptr.__image_base__>
   140002457:	31 c9                	xor    %ecx,%ecx
   140002459:	66 81 38 4d 5a       	cmpw   $0x5a4d,(%rax)
   14000245e:	75 0f                	jne    14000246f <__mingw_GetSectionCount+0x1f>
   140002460:	48 63 50 3c          	movslq 0x3c(%rax),%rdx
   140002464:	48 01 d0             	add    %rdx,%rax
   140002467:	81 38 50 45 00 00    	cmpl   $0x4550,(%rax)
   14000246d:	74 09                	je     140002478 <__mingw_GetSectionCount+0x28>
   14000246f:	89 c8                	mov    %ecx,%eax
   140002471:	c3                   	ret
   140002472:	66 0f 1f 44 00 00    	nopw   0x0(%rax,%rax,1)
   140002478:	66 81 78 18 0b 02    	cmpw   $0x20b,0x18(%rax)
   14000247e:	75 ef                	jne    14000246f <__mingw_GetSectionCount+0x1f>
   140002480:	0f b7 48 06          	movzwl 0x6(%rax),%ecx
   140002484:	89 c8                	mov    %ecx,%eax
   140002486:	c3                   	ret
   140002487:	66 0f 1f 84 00 00 00 	nopw   0x0(%rax,%rax,1)
   14000248e:	00 00 

0000000140002490 <_FindPESectionExec>:
   140002490:	4c 8b 05 19 1f 00 00 	mov    0x1f19(%rip),%r8        # 1400043b0 <.refptr.__image_base__>
   140002497:	31 c0                	xor    %eax,%eax
   140002499:	66 41 81 38 4d 5a    	cmpw   $0x5a4d,(%r8)
   14000249f:	75 0f                	jne    1400024b0 <_FindPESectionExec+0x20>
   1400024a1:	49 63 50 3c          	movslq 0x3c(%r8),%rdx
   1400024a5:	4c 01 c2             	add    %r8,%rdx
   1400024a8:	81 3a 50 45 00 00    	cmpl   $0x4550,(%rdx)
   1400024ae:	74 08                	je     1400024b8 <_FindPESectionExec+0x28>
   1400024b0:	c3                   	ret
   1400024b1:	0f 1f 80 00 00 00 00 	nopl   0x0(%rax)
   1400024b8:	66 81 7a 18 0b 02    	cmpw   $0x20b,0x18(%rdx)
   1400024be:	75 f0                	jne    1400024b0 <_FindPESectionExec+0x20>
   1400024c0:	0f b7 42 14          	movzwl 0x14(%rdx),%eax
   1400024c4:	44 0f b7 42 06       	movzwl 0x6(%rdx),%r8d
   1400024c9:	48 8d 44 02 18       	lea    0x18(%rdx,%rax,1),%rax
   1400024ce:	66 45 85 c0          	test   %r8w,%r8w
   1400024d2:	74 2c                	je     140002500 <_FindPESectionExec+0x70>
   1400024d4:	41 8d 50 ff          	lea    -0x1(%r8),%edx
   1400024d8:	48 8d 14 92          	lea    (%rdx,%rdx,4),%rdx
   1400024dc:	48 8d 54 d0 28       	lea    0x28(%rax,%rdx,8),%rdx
   1400024e1:	0f 1f 80 00 00 00 00 	nopl   0x0(%rax)
   1400024e8:	f6 40 27 20          	testb  $0x20,0x27(%rax)
   1400024ec:	74 09                	je     1400024f7 <_FindPESectionExec+0x67>
   1400024ee:	48 85 c9             	test   %rcx,%rcx
   1400024f1:	74 bd                	je     1400024b0 <_FindPESectionExec+0x20>
   1400024f3:	48 83 e9 01          	sub    $0x1,%rcx
   1400024f7:	48 83 c0 28          	add    $0x28,%rax
   1400024fb:	48 39 d0             	cmp    %rdx,%rax
   1400024fe:	75 e8                	jne    1400024e8 <_FindPESectionExec+0x58>
   140002500:	31 c0                	xor    %eax,%eax
   140002502:	c3                   	ret
   140002503:	66 66 2e 0f 1f 84 00 	data16 cs nopw 0x0(%rax,%rax,1)
   14000250a:	00 00 00 00 
   14000250e:	66 90                	xchg   %ax,%ax

0000000140002510 <_GetPEImageBase>:
   140002510:	48 8b 05 99 1e 00 00 	mov    0x1e99(%rip),%rax        # 1400043b0 <.refptr.__image_base__>
   140002517:	31 d2                	xor    %edx,%edx
   140002519:	66 81 38 4d 5a       	cmpw   $0x5a4d,(%rax)
   14000251e:	75 0f                	jne    14000252f <_GetPEImageBase+0x1f>
   140002520:	48 63 48 3c          	movslq 0x3c(%rax),%rcx
   140002524:	48 01 c1             	add    %rax,%rcx
   140002527:	81 39 50 45 00 00    	cmpl   $0x4550,(%rcx)
   14000252d:	74 09                	je     140002538 <_GetPEImageBase+0x28>
   14000252f:	48 89 d0             	mov    %rdx,%rax
   140002532:	c3                   	ret
   140002533:	0f 1f 44 00 00       	nopl   0x0(%rax,%rax,1)
   140002538:	66 81 79 18 0b 02    	cmpw   $0x20b,0x18(%rcx)
   14000253e:	48 0f 44 d0          	cmove  %rax,%rdx
   140002542:	48 89 d0             	mov    %rdx,%rax
   140002545:	c3                   	ret
   140002546:	66 2e 0f 1f 84 00 00 	cs nopw 0x0(%rax,%rax,1)
   14000254d:	00 00 00 

0000000140002550 <_IsNonwritableInCurrentImage>:
   140002550:	48 8b 15 59 1e 00 00 	mov    0x1e59(%rip),%rdx        # 1400043b0 <.refptr.__image_base__>
   140002557:	31 c0                	xor    %eax,%eax
   140002559:	66 81 3a 4d 5a       	cmpw   $0x5a4d,(%rdx)
   14000255e:	75 10                	jne    140002570 <_IsNonwritableInCurrentImage+0x20>
   140002560:	4c 63 42 3c          	movslq 0x3c(%rdx),%r8
   140002564:	49 01 d0             	add    %rdx,%r8
   140002567:	41 81 38 50 45 00 00 	cmpl   $0x4550,(%r8)
   14000256e:	74 08                	je     140002578 <_IsNonwritableInCurrentImage+0x28>
   140002570:	c3                   	ret
   140002571:	0f 1f 80 00 00 00 00 	nopl   0x0(%rax)
   140002578:	66 41 81 78 18 0b 02 	cmpw   $0x20b,0x18(%r8)
   14000257f:	75 ef                	jne    140002570 <_IsNonwritableInCurrentImage+0x20>
   140002581:	48 29 d1             	sub    %rdx,%rcx
   140002584:	45 0f b7 48 06       	movzwl 0x6(%r8),%r9d
   140002589:	41 0f b7 50 14       	movzwl 0x14(%r8),%edx
   14000258e:	49 8d 54 10 18       	lea    0x18(%r8,%rdx,1),%rdx
   140002593:	66 45 85 c9          	test   %r9w,%r9w
   140002597:	74 d7                	je     140002570 <_IsNonwritableInCurrentImage+0x20>
   140002599:	41 8d 41 ff          	lea    -0x1(%r9),%eax
   14000259d:	48 8d 04 80          	lea    (%rax,%rax,4),%rax
   1400025a1:	4c 8d 4c c2 28       	lea    0x28(%rdx,%rax,8),%r9
   1400025a6:	66 2e 0f 1f 84 00 00 	cs nopw 0x0(%rax,%rax,1)
   1400025ad:	00 00 00 
   1400025b0:	44 8b 42 0c          	mov    0xc(%rdx),%r8d
   1400025b4:	4c 89 c0             	mov    %r8,%rax
   1400025b7:	4c 39 c1             	cmp    %r8,%rcx
   1400025ba:	72 08                	jb     1400025c4 <_IsNonwritableInCurrentImage+0x74>
   1400025bc:	03 42 08             	add    0x8(%rdx),%eax
   1400025bf:	48 39 c1             	cmp    %rax,%rcx
   1400025c2:	72 0c                	jb     1400025d0 <_IsNonwritableInCurrentImage+0x80>
   1400025c4:	48 83 c2 28          	add    $0x28,%rdx
   1400025c8:	49 39 d1             	cmp    %rdx,%r9
   1400025cb:	75 e3                	jne    1400025b0 <_IsNonwritableInCurrentImage+0x60>
   1400025cd:	31 c0                	xor    %eax,%eax
   1400025cf:	c3                   	ret
   1400025d0:	8b 42 24             	mov    0x24(%rdx),%eax
   1400025d3:	f7 d0                	not    %eax
   1400025d5:	c1 e8 1f             	shr    $0x1f,%eax
   1400025d8:	c3                   	ret
   1400025d9:	0f 1f 80 00 00 00 00 	nopl   0x0(%rax)

00000001400025e0 <__mingw_enum_import_library_names>:
   1400025e0:	4c 8b 1d c9 1d 00 00 	mov    0x1dc9(%rip),%r11        # 1400043b0 <.refptr.__image_base__>
   1400025e7:	45 31 c9             	xor    %r9d,%r9d
   1400025ea:	66 41 81 3b 4d 5a    	cmpw   $0x5a4d,(%r11)
   1400025f0:	75 10                	jne    140002602 <__mingw_enum_import_library_names+0x22>
   1400025f2:	4d 63 43 3c          	movslq 0x3c(%r11),%r8
   1400025f6:	4d 01 d8             	add    %r11,%r8
   1400025f9:	41 81 38 50 45 00 00 	cmpl   $0x4550,(%r8)
   140002600:	74 0e                	je     140002610 <__mingw_enum_import_library_names+0x30>
   140002602:	4c 89 c8             	mov    %r9,%rax
   140002605:	c3                   	ret
   140002606:	66 2e 0f 1f 84 00 00 	cs nopw 0x0(%rax,%rax,1)
   14000260d:	00 00 00 
   140002610:	66 41 81 78 18 0b 02 	cmpw   $0x20b,0x18(%r8)
   140002617:	75 e9                	jne    140002602 <__mingw_enum_import_library_names+0x22>
   140002619:	41 8b 80 90 00 00 00 	mov    0x90(%r8),%eax
   140002620:	85 c0                	test   %eax,%eax
   140002622:	74 de                	je     140002602 <__mingw_enum_import_library_names+0x22>
   140002624:	41 0f b7 50 14       	movzwl 0x14(%r8),%edx
   140002629:	45 0f b7 50 06       	movzwl 0x6(%r8),%r10d
   14000262e:	49 8d 54 10 18       	lea    0x18(%r8,%rdx,1),%rdx
   140002633:	66 45 85 d2          	test   %r10w,%r10w
   140002637:	74 c9                	je     140002602 <__mingw_enum_import_library_names+0x22>
   140002639:	45 8d 42 ff          	lea    -0x1(%r10),%r8d
   14000263d:	4f 8d 04 80          	lea    (%r8,%r8,4),%r8
   140002641:	4e 8d 54 c2 28       	lea    0x28(%rdx,%r8,8),%r10
   140002646:	66 2e 0f 1f 84 00 00 	cs nopw 0x0(%rax,%rax,1)
   14000264d:	00 00 00 
   140002650:	44 8b 4a 0c          	mov    0xc(%rdx),%r9d
   140002654:	4d 89 c8             	mov    %r9,%r8
   140002657:	4c 39 c8             	cmp    %r9,%rax
   14000265a:	72 09                	jb     140002665 <__mingw_enum_import_library_names+0x85>
   14000265c:	44 03 42 08          	add    0x8(%rdx),%r8d
   140002660:	4c 39 c0             	cmp    %r8,%rax
   140002663:	72 13                	jb     140002678 <__mingw_enum_import_library_names+0x98>
   140002665:	48 83 c2 28          	add    $0x28,%rdx
   140002669:	4c 39 d2             	cmp    %r10,%rdx
   14000266c:	75 e2                	jne    140002650 <__mingw_enum_import_library_names+0x70>
   14000266e:	45 31 c9             	xor    %r9d,%r9d
   140002671:	4c 89 c8             	mov    %r9,%rax
   140002674:	c3                   	ret
   140002675:	0f 1f 00             	nopl   (%rax)
   140002678:	4c 01 d8             	add    %r11,%rax
   14000267b:	eb 0a                	jmp    140002687 <__mingw_enum_import_library_names+0xa7>
   14000267d:	0f 1f 00             	nopl   (%rax)
   140002680:	83 e9 01             	sub    $0x1,%ecx
   140002683:	48 83 c0 14          	add    $0x14,%rax
   140002687:	44 8b 40 04          	mov    0x4(%rax),%r8d
   14000268b:	45 85 c0             	test   %r8d,%r8d
   14000268e:	75 07                	jne    140002697 <__mingw_enum_import_library_names+0xb7>
   140002690:	8b 50 0c             	mov    0xc(%rax),%edx
   140002693:	85 d2                	test   %edx,%edx
   140002695:	74 d7                	je     14000266e <__mingw_enum_import_library_names+0x8e>
   140002697:	85 c9                	test   %ecx,%ecx
   140002699:	7f e5                	jg     140002680 <__mingw_enum_import_library_names+0xa0>
   14000269b:	44 8b 48 0c          	mov    0xc(%rax),%r9d
   14000269f:	4d 01 d9             	add    %r11,%r9
   1400026a2:	4c 89 c8             	mov    %r9,%rax
   1400026a5:	c3                   	ret
   1400026a6:	90                   	nop
   1400026a7:	90                   	nop
   1400026a8:	90                   	nop
   1400026a9:	90                   	nop
   1400026aa:	90                   	nop
   1400026ab:	90                   	nop
   1400026ac:	90                   	nop
   1400026ad:	90                   	nop
   1400026ae:	90                   	nop
   1400026af:	90                   	nop

00000001400026b0 <___chkstk_ms>:
   1400026b0:	51                   	push   %rcx
   1400026b1:	50                   	push   %rax
   1400026b2:	48 3d 00 10 00 00    	cmp    $0x1000,%rax
   1400026b8:	48 8d 4c 24 18       	lea    0x18(%rsp),%rcx
   1400026bd:	72 19                	jb     1400026d8 <___chkstk_ms+0x28>
   1400026bf:	48 81 e9 00 10 00 00 	sub    $0x1000,%rcx
   1400026c6:	48 83 09 00          	orq    $0x0,(%rcx)
   1400026ca:	48 2d 00 10 00 00    	sub    $0x1000,%rax
   1400026d0:	48 3d 00 10 00 00    	cmp    $0x1000,%rax
   1400026d6:	77 e7                	ja     1400026bf <___chkstk_ms+0xf>
   1400026d8:	48 29 c1             	sub    %rax,%rcx
   1400026db:	48 83 09 00          	orq    $0x0,(%rcx)
   1400026df:	58                   	pop    %rax
   1400026e0:	59                   	pop    %rcx
   1400026e1:	c3                   	ret
   1400026e2:	90                   	nop
   1400026e3:	90                   	nop
   1400026e4:	90                   	nop
   1400026e5:	90                   	nop
   1400026e6:	90                   	nop
   1400026e7:	90                   	nop
   1400026e8:	90                   	nop
   1400026e9:	90                   	nop
   1400026ea:	90                   	nop
   1400026eb:	90                   	nop
   1400026ec:	90                   	nop
   1400026ed:	90                   	nop
   1400026ee:	90                   	nop
   1400026ef:	90                   	nop

00000001400026f0 <__p__fmode>:
   1400026f0:	48 8b 05 f9 1c 00 00 	mov    0x1cf9(%rip),%rax        # 1400043f0 <.refptr.__imp__fmode>
   1400026f7:	48 8b 00             	mov    (%rax),%rax
   1400026fa:	c3                   	ret
   1400026fb:	90                   	nop
   1400026fc:	90                   	nop
   1400026fd:	90                   	nop
   1400026fe:	90                   	nop
   1400026ff:	90                   	nop

0000000140002700 <__p__commode>:
   140002700:	48 8b 05 d9 1c 00 00 	mov    0x1cd9(%rip),%rax        # 1400043e0 <.refptr.__imp__commode>
   140002707:	48 8b 00             	mov    (%rax),%rax
   14000270a:	c3                   	ret
   14000270b:	90                   	nop
   14000270c:	90                   	nop
   14000270d:	90                   	nop
   14000270e:	90                   	nop
   14000270f:	90                   	nop

0000000140002710 <__p__acmdln>:
   140002710:	48 8b 05 b9 1c 00 00 	mov    0x1cb9(%rip),%rax        # 1400043d0 <.refptr.__imp__acmdln>
   140002717:	48 8b 00             	mov    (%rax),%rax
   14000271a:	c3                   	ret
   14000271b:	90                   	nop
   14000271c:	90                   	nop
   14000271d:	90                   	nop
   14000271e:	90                   	nop
   14000271f:	90                   	nop

0000000140002720 <_get_invalid_parameter_handler>:
   140002720:	48 8b 05 69 4a 00 00 	mov    0x4a69(%rip),%rax        # 140007190 <handler>
   140002727:	c3                   	ret
   140002728:	0f 1f 84 00 00 00 00 	nopl   0x0(%rax,%rax,1)
   14000272f:	00 

0000000140002730 <_set_invalid_parameter_handler>:
   140002730:	48 89 c8             	mov    %rcx,%rax
   140002733:	48 87 05 56 4a 00 00 	xchg   %rax,0x4a56(%rip)        # 140007190 <handler>
   14000273a:	c3                   	ret
   14000273b:	90                   	nop
   14000273c:	90                   	nop
   14000273d:	90                   	nop
   14000273e:	90                   	nop
   14000273f:	90                   	nop

0000000140002740 <__acrt_iob_func>:
   140002740:	53                   	push   %rbx
   140002741:	48 83 ec 20          	sub    $0x20,%rsp
   140002745:	89 cb                	mov    %ecx,%ebx
   140002747:	e8 24 00 00 00       	call   140002770 <__iob_func>
   14000274c:	89 d9                	mov    %ebx,%ecx
   14000274e:	48 8d 14 49          	lea    (%rcx,%rcx,2),%rdx
   140002752:	48 c1 e2 04          	shl    $0x4,%rdx
   140002756:	48 01 d0             	add    %rdx,%rax
   140002759:	48 83 c4 20          	add    $0x20,%rsp
   14000275d:	5b                   	pop    %rbx
   14000275e:	c3                   	ret
   14000275f:	90                   	nop

0000000140002760 <__C_specific_handler>:
   140002760:	ff 25 aa 5a 00 00    	jmp    *0x5aaa(%rip)        # 140008210 <__imp___C_specific_handler>
   140002766:	90                   	nop
   140002767:	90                   	nop

0000000140002768 <__getmainargs>:
   140002768:	ff 25 aa 5a 00 00    	jmp    *0x5aaa(%rip)        # 140008218 <__imp___getmainargs>
   14000276e:	90                   	nop
   14000276f:	90                   	nop

0000000140002770 <__iob_func>:
   140002770:	ff 25 b2 5a 00 00    	jmp    *0x5ab2(%rip)        # 140008228 <__imp___iob_func>
   140002776:	90                   	nop
   140002777:	90                   	nop

0000000140002778 <__set_app_type>:
   140002778:	ff 25 b2 5a 00 00    	jmp    *0x5ab2(%rip)        # 140008230 <__imp___set_app_type>
   14000277e:	90                   	nop
   14000277f:	90                   	nop

0000000140002780 <__setusermatherr>:
   140002780:	ff 25 b2 5a 00 00    	jmp    *0x5ab2(%rip)        # 140008238 <__imp___setusermatherr>
   140002786:	90                   	nop
   140002787:	90                   	nop

0000000140002788 <_amsg_exit>:
   140002788:	ff 25 ba 5a 00 00    	jmp    *0x5aba(%rip)        # 140008248 <__imp__amsg_exit>
   14000278e:	90                   	nop
   14000278f:	90                   	nop

0000000140002790 <_cexit>:
   140002790:	ff 25 ba 5a 00 00    	jmp    *0x5aba(%rip)        # 140008250 <__imp__cexit>
   140002796:	90                   	nop
   140002797:	90                   	nop

0000000140002798 <_initterm>:
   140002798:	ff 25 ca 5a 00 00    	jmp    *0x5aca(%rip)        # 140008268 <__imp__initterm>
   14000279e:	90                   	nop
   14000279f:	90                   	nop

00000001400027a0 <_onexit>:
   1400027a0:	ff 25 ca 5a 00 00    	jmp    *0x5aca(%rip)        # 140008270 <__imp__onexit>
   1400027a6:	90                   	nop
   1400027a7:	90                   	nop

00000001400027a8 <abort>:
   1400027a8:	ff 25 ca 5a 00 00    	jmp    *0x5aca(%rip)        # 140008278 <__imp_abort>
   1400027ae:	90                   	nop
   1400027af:	90                   	nop

00000001400027b0 <calloc>:
   1400027b0:	ff 25 ca 5a 00 00    	jmp    *0x5aca(%rip)        # 140008280 <__imp_calloc>
   1400027b6:	90                   	nop
   1400027b7:	90                   	nop

00000001400027b8 <exit>:
   1400027b8:	ff 25 ca 5a 00 00    	jmp    *0x5aca(%rip)        # 140008288 <__imp_exit>
   1400027be:	90                   	nop
   1400027bf:	90                   	nop

00000001400027c0 <fprintf>:
   1400027c0:	ff 25 ca 5a 00 00    	jmp    *0x5aca(%rip)        # 140008290 <__imp_fprintf>
   1400027c6:	90                   	nop
   1400027c7:	90                   	nop

00000001400027c8 <free>:
   1400027c8:	ff 25 ca 5a 00 00    	jmp    *0x5aca(%rip)        # 140008298 <__imp_free>
   1400027ce:	90                   	nop
   1400027cf:	90                   	nop

00000001400027d0 <fwrite>:
   1400027d0:	ff 25 ca 5a 00 00    	jmp    *0x5aca(%rip)        # 1400082a0 <__imp_fwrite>
   1400027d6:	90                   	nop
   1400027d7:	90                   	nop

00000001400027d8 <malloc>:
   1400027d8:	ff 25 ca 5a 00 00    	jmp    *0x5aca(%rip)        # 1400082a8 <__imp_malloc>
   1400027de:	90                   	nop
   1400027df:	90                   	nop

00000001400027e0 <memcpy>:
   1400027e0:	ff 25 ca 5a 00 00    	jmp    *0x5aca(%rip)        # 1400082b0 <__imp_memcpy>
   1400027e6:	90                   	nop
   1400027e7:	90                   	nop

00000001400027e8 <signal>:
   1400027e8:	ff 25 ca 5a 00 00    	jmp    *0x5aca(%rip)        # 1400082b8 <__imp_signal>
   1400027ee:	90                   	nop
   1400027ef:	90                   	nop

00000001400027f0 <strlen>:
   1400027f0:	ff 25 ca 5a 00 00    	jmp    *0x5aca(%rip)        # 1400082c0 <__imp_strlen>
   1400027f6:	90                   	nop
   1400027f7:	90                   	nop

00000001400027f8 <strncmp>:
   1400027f8:	ff 25 ca 5a 00 00    	jmp    *0x5aca(%rip)        # 1400082c8 <__imp_strncmp>
   1400027fe:	90                   	nop
   1400027ff:	90                   	nop

0000000140002800 <vfprintf>:
   140002800:	ff 25 ca 5a 00 00    	jmp    *0x5aca(%rip)        # 1400082d0 <__imp_vfprintf>
   140002806:	90                   	nop
   140002807:	90                   	nop
   140002808:	0f 1f 84 00 00 00 00 	nopl   0x0(%rax,%rax,1)
   14000280f:	00 

0000000140002810 <VirtualQuery>:
   140002810:	ff 25 ea 59 00 00    	jmp    *0x59ea(%rip)        # 140008200 <__imp_VirtualQuery>
   140002816:	90                   	nop
   140002817:	90                   	nop

0000000140002818 <VirtualProtect>:
   140002818:	ff 25 da 59 00 00    	jmp    *0x59da(%rip)        # 1400081f8 <__imp_VirtualProtect>
   14000281e:	90                   	nop
   14000281f:	90                   	nop

0000000140002820 <TlsGetValue>:
   140002820:	ff 25 ca 59 00 00    	jmp    *0x59ca(%rip)        # 1400081f0 <__imp_TlsGetValue>
   140002826:	90                   	nop
   140002827:	90                   	nop

0000000140002828 <Sleep>:
   140002828:	ff 25 ba 59 00 00    	jmp    *0x59ba(%rip)        # 1400081e8 <__imp_Sleep>
   14000282e:	90                   	nop
   14000282f:	90                   	nop

0000000140002830 <SetUnhandledExceptionFilter>:
   140002830:	ff 25 aa 59 00 00    	jmp    *0x59aa(%rip)        # 1400081e0 <__imp_SetUnhandledExceptionFilter>
   140002836:	90                   	nop
   140002837:	90                   	nop

0000000140002838 <LeaveCriticalSection>:
   140002838:	ff 25 9a 59 00 00    	jmp    *0x599a(%rip)        # 1400081d8 <__imp_LeaveCriticalSection>
   14000283e:	90                   	nop
   14000283f:	90                   	nop

0000000140002840 <InitializeCriticalSection>:
   140002840:	ff 25 8a 59 00 00    	jmp    *0x598a(%rip)        # 1400081d0 <__imp_InitializeCriticalSection>
   140002846:	90                   	nop
   140002847:	90                   	nop

0000000140002848 <GetStartupInfoA>:
   140002848:	ff 25 7a 59 00 00    	jmp    *0x597a(%rip)        # 1400081c8 <__imp_GetStartupInfoA>
   14000284e:	90                   	nop
   14000284f:	90                   	nop

0000000140002850 <GetLastError>:
   140002850:	ff 25 6a 59 00 00    	jmp    *0x596a(%rip)        # 1400081c0 <__imp_GetLastError>
   140002856:	90                   	nop
   140002857:	90                   	nop

0000000140002858 <EnterCriticalSection>:
   140002858:	ff 25 5a 59 00 00    	jmp    *0x595a(%rip)        # 1400081b8 <__imp_EnterCriticalSection>
   14000285e:	90                   	nop
   14000285f:	90                   	nop

0000000140002860 <DeleteCriticalSection>:
   140002860:	ff 25 4a 59 00 00    	jmp    *0x594a(%rip)        # 1400081b0 <__IAT_start__>
   140002866:	90                   	nop
   140002867:	90                   	nop
   140002868:	0f 1f 84 00 00 00 00 	nopl   0x0(%rax,%rax,1)
   14000286f:	00 

0000000140002870 <register_frame_ctor>:
   140002870:	e9 9b ec ff ff       	jmp    140001510 <__gcc_register_frame>
   140002875:	90                   	nop
   140002876:	90                   	nop
   140002877:	90                   	nop
   140002878:	90                   	nop
   140002879:	90                   	nop
   14000287a:	90                   	nop
   14000287b:	90                   	nop
   14000287c:	90                   	nop
   14000287d:	90                   	nop
   14000287e:	90                   	nop
   14000287f:	90                   	nop

0000000140002880 <__CTOR_LIST__>:
   140002880:	ff                   	(bad)
   140002881:	ff                   	(bad)
   140002882:	ff                   	(bad)
   140002883:	ff                   	(bad)
   140002884:	ff                   	(bad)
   140002885:	ff                   	(bad)
   140002886:	ff                   	(bad)
   140002887:	ff                   	.byte 0xff

0000000140002888 <.ctors>:
   140002888:	12 16                	adc    (%rsi),%dl
   14000288a:	00 40 01             	add    %al,0x1(%rax)
   14000288d:	00 00                	add    %al,(%rax)
	...

0000000140002890 <.ctors.65535>:
   140002890:	70 28                	jo     1400028ba <__DTOR_LIST__+0x1a>
   140002892:	00 40 01             	add    %al,0x1(%rax)
	...

00000001400028a0 <__DTOR_LIST__>:
   1400028a0:	ff                   	(bad)
   1400028a1:	ff                   	(bad)
   1400028a2:	ff                   	(bad)
   1400028a3:	ff                   	(bad)
   1400028a4:	ff                   	(bad)
   1400028a5:	ff                   	(bad)
   1400028a6:	ff                   	(bad)
   1400028a7:	ff 00                	incl   (%rax)
   1400028a9:	00 00                	add    %al,(%rax)
   1400028ab:	00 00                	add    %al,(%rax)
   1400028ad:	00 00                	add    %al,(%rax)
	...
