	.file	"c++parameterpractice.cc"
	.text
	.section	.text._ZNKSt5ctypeIcE8do_widenEc,"axG",@progbits,_ZNKSt5ctypeIcE8do_widenEc,comdat
	.align 2
	.p2align 4
	.weak	_ZNKSt5ctypeIcE8do_widenEc
	.type	_ZNKSt5ctypeIcE8do_widenEc, @function
_ZNKSt5ctypeIcE8do_widenEc:
.LFB1347:
	.cfi_startproc
	endbr64
	movl	%esi, %eax
	ret
	.cfi_endproc
.LFE1347:
	.size	_ZNKSt5ctypeIcE8do_widenEc, .-_ZNKSt5ctypeIcE8do_widenEc
	.text
	.p2align 4
	.globl	_Z1gi
	.type	_Z1gi, @function
_Z1gi:
.LFB1590:
	.cfi_startproc
	endbr64
	pushq	%r12
	.cfi_def_cfa_offset 16
	.cfi_offset 12, -16
	movl	%edi, %esi
	leaq	_ZSt4cout(%rip), %rdi
	pushq	%rbp
	.cfi_def_cfa_offset 24
	.cfi_offset 6, -24
	subq	$8, %rsp
	.cfi_def_cfa_offset 32
	call	_ZNSolsEi@PLT
	movq	%rax, %rbp
	movq	(%rax), %rax
	movq	-24(%rax), %rax
	movq	240(%rbp,%rax), %r12
	testq	%r12, %r12
	je	.L9
	cmpb	$0, 56(%r12)
	je	.L5
	movsbl	67(%r12), %esi
.L6:
	movq	%rbp, %rdi
	call	_ZNSo3putEc@PLT
	addq	$8, %rsp
	.cfi_remember_state
	.cfi_def_cfa_offset 24
	popq	%rbp
	.cfi_def_cfa_offset 16
	movq	%rax, %rdi
	popq	%r12
	.cfi_def_cfa_offset 8
	jmp	_ZNSo5flushEv@PLT
	.p2align 4,,10
	.p2align 3
.L5:
	.cfi_restore_state
	movq	%r12, %rdi
	call	_ZNKSt5ctypeIcE13_M_widen_initEv@PLT
	movq	(%r12), %rax
	movl	$10, %esi
	leaq	_ZNKSt5ctypeIcE8do_widenEc(%rip), %rdx
	movq	48(%rax), %rax
	cmpq	%rdx, %rax
	je	.L6
	movq	%r12, %rdi
	call	*%rax
	movsbl	%al, %esi
	jmp	.L6
.L9:
	call	_ZSt16__throw_bad_castv@PLT
	.cfi_endproc
.LFE1590:
	.size	_Z1gi, .-_Z1gi
	.p2align 4
	.globl	_Z1gii
	.type	_Z1gii, @function
_Z1gii:
.LFB1591:
	.cfi_startproc
	endbr64
	leal	(%rdi,%rsi), %eax
	ret
	.cfi_endproc
.LFE1591:
	.size	_Z1gii, .-_Z1gii
	.p2align 4
	.globl	_Z1gdd
	.type	_Z1gdd, @function
_Z1gdd:
.LFB1592:
	.cfi_startproc
	endbr64
	addsd	%xmm1, %xmm0
	ret
	.cfi_endproc
.LFE1592:
	.size	_Z1gdd, .-_Z1gdd
	.section	.text.startup,"ax",@progbits
	.p2align 4
	.globl	main
	.type	main, @function
main:
.LFB1593:
	.cfi_startproc
	endbr64
	pushq	%rbp
	.cfi_def_cfa_offset 16
	.cfi_offset 6, -16
	movl	$5, %esi
	leaq	_ZSt4cout(%rip), %rdi
	subq	$16, %rsp
	.cfi_def_cfa_offset 32
	movq	%fs:40, %rax
	movq	%rax, 8(%rsp)
	xorl	%eax, %eax
	leaq	7(%rsp), %rbp
	call	_ZNSolsEi@PLT
	movq	%rax, %rdi
	call	_ZSt4endlIcSt11char_traitsIcEERSt13basic_ostreamIT_T0_ES6_@PLT
	movl	$7, %esi
	leaq	_ZSt4cout(%rip), %rdi
	call	_ZNSolsEi@PLT
	movl	$1, %edx
	movq	%rbp, %rsi
	movb	$10, 7(%rsp)
	movq	%rax, %rdi
	call	_ZSt16__ostream_insertIcSt11char_traitsIcEERSt13basic_ostreamIT_T0_ES6_PKS3_l@PLT
	movsd	.LC0(%rip), %xmm0
	leaq	_ZSt4cout(%rip), %rdi
	call	_ZNSo9_M_insertIdEERSoT_@PLT
	movl	$1, %edx
	movq	%rbp, %rsi
	movb	$10, 7(%rsp)
	movq	%rax, %rdi
	call	_ZSt16__ostream_insertIcSt11char_traitsIcEERSt13basic_ostreamIT_T0_ES6_PKS3_l@PLT
	movsd	.LC1(%rip), %xmm0
	leaq	_ZSt4cout(%rip), %rdi
	call	_ZNSo9_M_insertIdEERSoT_@PLT
	movl	$1, %edx
	movq	%rbp, %rsi
	movb	$10, 7(%rsp)
	movq	%rax, %rdi
	call	_ZSt16__ostream_insertIcSt11char_traitsIcEERSt13basic_ostreamIT_T0_ES6_PKS3_l@PLT
	movq	8(%rsp), %rax
	xorq	%fs:40, %rax
	jne	.L15
	addq	$16, %rsp
	.cfi_remember_state
	.cfi_def_cfa_offset 16
	xorl	%eax, %eax
	popq	%rbp
	.cfi_def_cfa_offset 8
	ret
.L15:
	.cfi_restore_state
	call	__stack_chk_fail@PLT
	.cfi_endproc
.LFE1593:
	.size	main, .-main
	.p2align 4
	.type	_GLOBAL__sub_I__Z1gi, @function
_GLOBAL__sub_I__Z1gi:
.LFB2081:
	.cfi_startproc
	endbr64
	subq	$8, %rsp
	.cfi_def_cfa_offset 16
	leaq	_ZStL8__ioinit(%rip), %rdi
	call	_ZNSt8ios_base4InitC1Ev@PLT
	movq	_ZNSt8ios_base4InitD1Ev@GOTPCREL(%rip), %rdi
	addq	$8, %rsp
	.cfi_def_cfa_offset 8
	leaq	__dso_handle(%rip), %rdx
	leaq	_ZStL8__ioinit(%rip), %rsi
	jmp	__cxa_atexit@PLT
	.cfi_endproc
.LFE2081:
	.size	_GLOBAL__sub_I__Z1gi, .-_GLOBAL__sub_I__Z1gi
	.section	.init_array,"aw"
	.align 8
	.quad	_GLOBAL__sub_I__Z1gi
	.local	_ZStL8__ioinit
	.comm	_ZStL8__ioinit,1,1
	.section	.rodata.cst8,"aM",@progbits,8
	.align 8
.LC0:
	.long	3435973837
	.long	1075236044
	.align 8
.LC1:
	.long	0
	.long	1074790400
	.hidden	__dso_handle
	.ident	"GCC: (Ubuntu 9.2.1-9ubuntu2) 9.2.1 20191008"
	.section	.note.GNU-stack,"",@progbits
	.section	.note.gnu.property,"a"
	.align 8
	.long	 1f - 0f
	.long	 4f - 1f
	.long	 5
0:
	.string	 "GNU"
1:
	.align 8
	.long	 0xc0000002
	.long	 3f - 2f
2:
	.long	 0x3
3:
	.align 8
4:
