	.file	"hw2.cc"
	.text
.Ltext0:
	.cfi_sections	.debug_frame
	.p2align 4,,15
	.def	__tcf_0;	.scl	3;	.type	32;	.endef
	.seh_proc	__tcf_0
__tcf_0:
.LFB1768:
	.file 1 "D:/msys64/mingw64/include/c++/6.2.0/iostream"
	.loc 1 74 0
	.cfi_startproc
	.seh_endprologue
	.loc 1 74 0
	leaq	_ZStL8__ioinit(%rip), %rcx
	jmp	_ZNSt8ios_base4InitD1Ev
.LVL0:
	.cfi_endproc
.LFE1768:
	.seh_endproc
	.def	__main;	.scl	2;	.type	32;	.endef
	.section .rdata,"dr"
.LC0:
	.ascii ",\0"
	.section	.text.startup,"x"
	.p2align 4,,15
	.globl	main
	.def	main;	.scl	2;	.type	32;	.endef
	.seh_proc	main
main:
.LFB1483:
	.file 2 "hw2.cc"
	.loc 2 5 0
	.cfi_startproc
	pushq	%r12
	.seh_pushreg	%r12
	.cfi_def_cfa_offset 16
	.cfi_offset 12, -16
	pushq	%rbp
	.seh_pushreg	%rbp
	.cfi_def_cfa_offset 24
	.cfi_offset 6, -24
	pushq	%rdi
	.seh_pushreg	%rdi
	.cfi_def_cfa_offset 32
	.cfi_offset 5, -32
	pushq	%rsi
	.seh_pushreg	%rsi
	.cfi_def_cfa_offset 40
	.cfi_offset 4, -40
	pushq	%rbx
	.seh_pushreg	%rbx
	.cfi_def_cfa_offset 48
	.cfi_offset 3, -48
	subq	$96, %rsp
	.seh_stackalloc	96
	.cfi_def_cfa_offset 144
	.seh_endprologue
	.loc 2 8 0
	leaq	32(%rsp), %rdi
	leaq	64(%rsp), %rbp
	leaq	80(%rsp), %r12
	.loc 2 5 0
	call	__main
.LVL1:
	.loc 2 8 0
	movq	%r12, %r8
	movq	%rbp, %rdx
	movq	%rdi, %rcx
.LBB72:
.LBB73:
.LBB74:
	.file 3 "BigNum.hh"
	.loc 3 11 0
	movl	$0, 64(%rsp)
	movl	$0, 68(%rsp)
	movl	$0, 72(%rsp)
	movl	$3, 76(%rsp)
.LVL2:
.LBE74:
.LBE73:
.LBE72:
.LBB75:
.LBB76:
.LBB77:
	movl	$0, 80(%rsp)
	movl	$0, 84(%rsp)
	movl	$0, 88(%rsp)
	movl	$5, 92(%rsp)
.LVL3:
.LBE77:
.LBE76:
.LBE75:
	.loc 2 8 0
	call	_Z6add128RK6BigNumS1_
.LVL4:
	movq	32(%rsp), %rbx
.LVL5:
	.loc 2 9 0
	movq	%r12, %r8
	movq	%rbp, %rdx
	movq	%rdi, %rcx
	.loc 2 8 0
	movq	40(%rsp), %rsi
	.loc 2 9 0
	call	_ZplRK6BigNumS1_
.LVL6:
.LBB78:
.LBB79:
.LBB80:
.LBB81:
	.file 4 "D:/msys64/mingw64/include/c++/6.2.0/ostream"
	.loc 4 196 0
	movq	.refptr._ZSt4cout(%rip), %rcx
	movl	%ebx, %edx
.LBE81:
.LBE80:
	.loc 3 17 0
	movq	%rbx, %rbp
	shrq	$32, %rbp
	movq	%rsi, %rdi
	shrq	$32, %rdi
.LVL7:
.LBB84:
.LBB82:
	.loc 4 196 0
	call	_ZNSo9_M_insertImEERSoT_
.LVL8:
.LBE82:
.LBE84:
.LBB85:
.LBB86:
	.loc 4 561 0
	leaq	.LC0(%rip), %rdx
.LBE86:
.LBE85:
.LBB88:
.LBB83:
	.loc 4 196 0
	movq	%rax, %rbx
.LVL9:
.LBE83:
.LBE88:
.LBB89:
.LBB87:
	.loc 4 561 0
	movl	$1, %r8d
	movq	%rax, %rcx
	call	_ZSt16__ostream_insertIcSt11char_traitsIcEERSt13basic_ostreamIT_T0_ES6_PKS3_x
.LVL10:
.LBE87:
.LBE89:
.LBB90:
.LBB91:
	.loc 4 196 0
	movl	%ebp, %edx
	movq	%rbx, %rcx
	call	_ZNSo9_M_insertImEERSoT_
.LVL11:
.LBE91:
.LBE90:
.LBB93:
.LBB94:
	.loc 4 561 0
	leaq	.LC0(%rip), %rdx
.LBE94:
.LBE93:
.LBB96:
.LBB92:
	.loc 4 196 0
	movq	%rax, %rbx
.LVL12:
.LBE92:
.LBE96:
.LBB97:
.LBB95:
	.loc 4 561 0
	movl	$1, %r8d
	movq	%rax, %rcx
	call	_ZSt16__ostream_insertIcSt11char_traitsIcEERSt13basic_ostreamIT_T0_ES6_PKS3_x
.LVL13:
.LBE95:
.LBE97:
.LBB98:
.LBB99:
	.loc 4 196 0
	movl	%esi, %edx
	movq	%rbx, %rcx
	call	_ZNSo9_M_insertImEERSoT_
.LVL14:
.LBE99:
.LBE98:
.LBB101:
.LBB102:
	.loc 4 561 0
	leaq	.LC0(%rip), %rdx
.LBE102:
.LBE101:
.LBB104:
.LBB100:
	.loc 4 196 0
	movq	%rax, %rbx
.LVL15:
.LBE100:
.LBE104:
.LBB105:
.LBB103:
	.loc 4 561 0
	movl	$1, %r8d
	movq	%rax, %rcx
	call	_ZSt16__ostream_insertIcSt11char_traitsIcEERSt13basic_ostreamIT_T0_ES6_PKS3_x
.LVL16:
.LBE103:
.LBE105:
.LBB106:
.LBB107:
	.loc 4 196 0
	movl	%edi, %edx
	movq	%rbx, %rcx
	call	_ZNSo9_M_insertImEERSoT_
.LVL17:
.LBE107:
.LBE106:
.LBE79:
.LBE78:
.LBB108:
.LBB109:
	.loc 4 509 0
	leaq	63(%rsp), %rdx
	movl	$1, %r8d
	movq	%rax, %rcx
	movb	$10, 63(%rsp)
.LVL18:
	call	_ZSt16__ostream_insertIcSt11char_traitsIcEERSt13basic_ostreamIT_T0_ES6_PKS3_x
.LVL19:
.LBE109:
.LBE108:
	.loc 2 12 0
	xorl	%eax, %eax
	addq	$96, %rsp
	.cfi_def_cfa_offset 48
	popq	%rbx
	.cfi_restore 3
	.cfi_def_cfa_offset 40
	popq	%rsi
	.cfi_restore 4
	.cfi_def_cfa_offset 32
	popq	%rdi
	.cfi_restore 5
	.cfi_def_cfa_offset 24
	popq	%rbp
	.cfi_restore 6
	.cfi_def_cfa_offset 16
	popq	%r12
	.cfi_restore 12
	.cfi_def_cfa_offset 8
	ret
	.cfi_endproc
.LFE1483:
	.seh_endproc
	.p2align 4,,15
	.def	_GLOBAL__sub_I_main;	.scl	3;	.type	32;	.endef
	.seh_proc	_GLOBAL__sub_I_main
_GLOBAL__sub_I_main:
.LFB1769:
	.loc 2 12 0
	.cfi_startproc
	subq	$40, %rsp
	.seh_stackalloc	40
	.cfi_def_cfa_offset 48
	.seh_endprologue
.LVL20:
.LBB110:
.LBB111:
	.loc 1 74 0
	leaq	_ZStL8__ioinit(%rip), %rcx
	call	_ZNSt8ios_base4InitC1Ev
.LVL21:
	leaq	__tcf_0(%rip), %rcx
.LBE111:
.LBE110:
	.loc 2 12 0
	addq	$40, %rsp
	.cfi_def_cfa_offset 8
.LBB113:
.LBB112:
	.loc 1 74 0
	jmp	atexit
.LVL22:
.LBE112:
.LBE113:
	.cfi_endproc
.LFE1769:
	.seh_endproc
	.section	.ctors,"w"
	.align 8
	.quad	_GLOBAL__sub_I_main
.lcomm _ZStL8__ioinit,1,1
	.text
.Letext0:
	.file 5 "D:/msys64/mingw64/include/c++/6.2.0/cwchar"
	.file 6 "<built-in>"
	.file 7 "D:/msys64/mingw64/include/c++/6.2.0/bits/exception_ptr.h"
	.file 8 "D:/msys64/mingw64/include/c++/6.2.0/type_traits"
	.file 9 "D:/msys64/mingw64/include/c++/6.2.0/x86_64-w64-mingw32/bits/c++config.h"
	.file 10 "D:/msys64/mingw64/include/c++/6.2.0/debug/debug.h"
	.file 11 "D:/msys64/mingw64/include/c++/6.2.0/bits/char_traits.h"
	.file 12 "D:/msys64/mingw64/include/c++/6.2.0/bits/stl_pair.h"
	.file 13 "D:/msys64/mingw64/include/c++/6.2.0/cstdint"
	.file 14 "D:/msys64/mingw64/include/c++/6.2.0/clocale"
	.file 15 "D:/msys64/mingw64/include/c++/6.2.0/new"
	.file 16 "D:/msys64/mingw64/include/c++/6.2.0/cstdlib"
	.file 17 "D:/msys64/mingw64/include/c++/6.2.0/cstdio"
	.file 18 "D:/msys64/mingw64/include/c++/6.2.0/system_error"
	.file 19 "D:/msys64/mingw64/include/c++/6.2.0/bits/ios_base.h"
	.file 20 "D:/msys64/mingw64/include/c++/6.2.0/cwctype"
	.file 21 "D:/msys64/mingw64/include/c++/6.2.0/iosfwd"
	.file 22 "D:/msys64/mingw64/include/c++/6.2.0/bits/basic_ios.h"
	.file 23 "D:/msys64/mingw64/include/c++/6.2.0/bits/ostream.tcc"
	.file 24 "D:/msys64/mingw64/include/c++/6.2.0/bits/ostream_insert.h"
	.file 25 "D:/msys64/mingw64/include/c++/6.2.0/bits/predefined_ops.h"
	.file 26 "D:/msys64/mingw64/include/c++/6.2.0/ext/new_allocator.h"
	.file 27 "D:/msys64/mingw64/include/c++/6.2.0/ext/numeric_traits.h"
	.file 28 "D:/msys64/mingw64/x86_64-w64-mingw32/include/crtdefs.h"
	.file 29 "D:/msys64/mingw64/x86_64-w64-mingw32/include/locale.h"
	.file 30 "D:/msys64/mingw64/x86_64-w64-mingw32/include/wchar.h"
	.file 31 "D:/msys64/mingw64/x86_64-w64-mingw32/include/swprintf.inl"
	.file 32 "D:/msys64/mingw64/x86_64-w64-mingw32/include/stdint.h"
	.file 33 "D:/msys64/mingw64/x86_64-w64-mingw32/include/stdio.h"
	.file 34 "D:/msys64/mingw64/x86_64-w64-mingw32/include/ctype.h"
	.file 35 "D:/msys64/mingw64/x86_64-w64-mingw32/include/process.h"
	.file 36 "D:/msys64/mingw64/x86_64-w64-mingw32/include/pthread.h"
	.file 37 "D:/msys64/mingw64/include/c++/6.2.0/x86_64-w64-mingw32/bits/atomic_word.h"
	.file 38 "D:/msys64/mingw64/x86_64-w64-mingw32/include/stdlib.h"
	.file 39 "D:/msys64/mingw64/x86_64-w64-mingw32/include/malloc.h"
	.file 40 "D:/msys64/mingw64/x86_64-w64-mingw32/include/wctype.h"
	.section	.rdata$.refptr._ZSt4cout, "dr"
	.globl	.refptr._ZSt4cout
	.linkonce	discard
.refptr._ZSt4cout:
	.quad	_ZSt4cout
