	.arch armv8-a
	.file	"all_instructions.cc"
	.text
	.align	2
	.p2align 4,,11
	.global	_Z4f1_1ii
	.type	_Z4f1_1ii, %function
_Z4f1_1ii:
.LFB1825:
	.cfi_startproc
	add	w0, w0, w1
	ret
	.cfi_endproc
.LFE1825:
	.size	_Z4f1_1ii, .-_Z4f1_1ii
	.align	2
	.p2align 4,,11
	.global	_Z4f1_2ii
	.type	_Z4f1_2ii, %function
_Z4f1_2ii:
.LFB1826:
	.cfi_startproc
	sub	w0, w0, w1
	ret
	.cfi_endproc
.LFE1826:
	.size	_Z4f1_2ii, .-_Z4f1_2ii
	.align	2
	.p2align 4,,11
	.global	_Z4f1_3ii
	.type	_Z4f1_3ii, %function
_Z4f1_3ii:
.LFB1827:
	.cfi_startproc
	mul	w0, w0, w1
	ret
	.cfi_endproc
.LFE1827:
	.size	_Z4f1_3ii, .-_Z4f1_3ii
	.align	2
	.p2align 4,,11
	.global	_Z4f1_4ii
	.type	_Z4f1_4ii, %function
_Z4f1_4ii:
.LFB1828:
	.cfi_startproc
	sdiv	w0, w0, w1
	ret
	.cfi_endproc
.LFE1828:
	.size	_Z4f1_4ii, .-_Z4f1_4ii
	.align	2
	.p2align 4,,11
	.global	_Z4f1_5ii
	.type	_Z4f1_5ii, %function
_Z4f1_5ii:
.LFB1829:
	.cfi_startproc
	sdiv	w2, w0, w1
	msub	w0, w2, w1, w0
	ret
	.cfi_endproc
.LFE1829:
	.size	_Z4f1_5ii, .-_Z4f1_5ii
	.align	2
	.p2align 4,,11
	.global	_Z4f1_6i
	.type	_Z4f1_6i, %function
_Z4f1_6i:
.LFB1830:
	.cfi_startproc
	neg	w0, w0
	ret
	.cfi_endproc
.LFE1830:
	.size	_Z4f1_6i, .-_Z4f1_6i
	.align	2
	.p2align 4,,11
	.global	_Z4f1_7ii
	.type	_Z4f1_7ii, %function
_Z4f1_7ii:
.LFB1831:
	.cfi_startproc
	and	w0, w0, w1
	ret
	.cfi_endproc
.LFE1831:
	.size	_Z4f1_7ii, .-_Z4f1_7ii
	.align	2
	.p2align 4,,11
	.global	_Z4f1_8ii
	.type	_Z4f1_8ii, %function
_Z4f1_8ii:
.LFB1832:
	.cfi_startproc
	orr	w0, w0, w1
	ret
	.cfi_endproc
.LFE1832:
	.size	_Z4f1_8ii, .-_Z4f1_8ii
	.align	2
	.p2align 4,,11
	.global	_Z4f1_9ii
	.type	_Z4f1_9ii, %function
_Z4f1_9ii:
.LFB1833:
	.cfi_startproc
	eor	w0, w0, w1
	ret
	.cfi_endproc
.LFE1833:
	.size	_Z4f1_9ii, .-_Z4f1_9ii
	.align	2
	.p2align 4,,11
	.global	_Z5f1_10i
	.type	_Z5f1_10i, %function
_Z5f1_10i:
.LFB1834:
	.cfi_startproc
	mvn	w0, w0
	ret
	.cfi_endproc
.LFE1834:
	.size	_Z5f1_10i, .-_Z5f1_10i
	.align	2
	.p2align 4,,11
	.global	_Z5f1_11i
	.type	_Z5f1_11i, %function
_Z5f1_11i:
.LFB1835:
	.cfi_startproc
	lsl	w0, w0, 7
	ret
	.cfi_endproc
.LFE1835:
	.size	_Z5f1_11i, .-_Z5f1_11i
	.align	2
	.p2align 4,,11
	.global	_Z5f1_12i
	.type	_Z5f1_12i, %function
_Z5f1_12i:
.LFB1836:
	.cfi_startproc
	asr	w0, w0, 7
	ret
	.cfi_endproc
.LFE1836:
	.size	_Z5f1_12i, .-_Z5f1_12i
	.align	2
	.p2align 4,,11
	.global	_Z5f1_13j
	.type	_Z5f1_13j, %function
_Z5f1_13j:
.LFB1837:
	.cfi_startproc
	lsl	w0, w0, 7
	ret
	.cfi_endproc
.LFE1837:
	.size	_Z5f1_13j, .-_Z5f1_13j
	.align	2
	.p2align 4,,11
	.global	_Z5f1_14ii
	.type	_Z5f1_14ii, %function
_Z5f1_14ii:
.LFB1838:
	.cfi_startproc
	asr	w1, w0, 25
	orr	w0, w1, w0, lsl 7
	ret
	.cfi_endproc
.LFE1838:
	.size	_Z5f1_14ii, .-_Z5f1_14ii
	.align	2
	.p2align 4,,11
	.global	_Z4f2_1mm
	.type	_Z4f2_1mm, %function
_Z4f2_1mm:
.LFB1839:
	.cfi_startproc
	add	x0, x0, x1
	ret
	.cfi_endproc
.LFE1839:
	.size	_Z4f2_1mm, .-_Z4f2_1mm
	.align	2
	.p2align 4,,11
	.global	_Z4f2_2mm
	.type	_Z4f2_2mm, %function
_Z4f2_2mm:
.LFB1840:
	.cfi_startproc
	sub	x0, x0, x1
	ret
	.cfi_endproc
.LFE1840:
	.size	_Z4f2_2mm, .-_Z4f2_2mm
	.align	2
	.p2align 4,,11
	.global	_Z4f2_3mm
	.type	_Z4f2_3mm, %function
_Z4f2_3mm:
.LFB1841:
	.cfi_startproc
	mul	x0, x0, x1
	ret
	.cfi_endproc
.LFE1841:
	.size	_Z4f2_3mm, .-_Z4f2_3mm
	.align	2
	.p2align 4,,11
	.global	_Z4f2_4mm
	.type	_Z4f2_4mm, %function
_Z4f2_4mm:
.LFB1842:
	.cfi_startproc
	udiv	x0, x0, x1
	ret
	.cfi_endproc
.LFE1842:
	.size	_Z4f2_4mm, .-_Z4f2_4mm
	.align	2
	.p2align 4,,11
	.global	_Z4f2_5mm
	.type	_Z4f2_5mm, %function
_Z4f2_5mm:
.LFB1843:
	.cfi_startproc
	udiv	x2, x0, x1
	msub	x0, x2, x1, x0
	ret
	.cfi_endproc
.LFE1843:
	.size	_Z4f2_5mm, .-_Z4f2_5mm
	.align	2
	.p2align 4,,11
	.global	_Z4f2_6m
	.type	_Z4f2_6m, %function
_Z4f2_6m:
.LFB1844:
	.cfi_startproc
	neg	x0, x0
	ret
	.cfi_endproc
.LFE1844:
	.size	_Z4f2_6m, .-_Z4f2_6m
	.align	2
	.p2align 4,,11
	.global	_Z4f2_7mm
	.type	_Z4f2_7mm, %function
_Z4f2_7mm:
.LFB1845:
	.cfi_startproc
	and	x0, x0, x1
	ret
	.cfi_endproc
.LFE1845:
	.size	_Z4f2_7mm, .-_Z4f2_7mm
	.align	2
	.p2align 4,,11
	.global	_Z4f2_8mm
	.type	_Z4f2_8mm, %function
_Z4f2_8mm:
.LFB1846:
	.cfi_startproc
	orr	x0, x0, x1
	ret
	.cfi_endproc
.LFE1846:
	.size	_Z4f2_8mm, .-_Z4f2_8mm
	.align	2
	.p2align 4,,11
	.global	_Z4f2_9mm
	.type	_Z4f2_9mm, %function
_Z4f2_9mm:
.LFB1847:
	.cfi_startproc
	eor	x0, x0, x1
	ret
	.cfi_endproc
.LFE1847:
	.size	_Z4f2_9mm, .-_Z4f2_9mm
	.align	2
	.p2align 4,,11
	.global	_Z5f2_10m
	.type	_Z5f2_10m, %function
_Z5f2_10m:
.LFB1848:
	.cfi_startproc
	mvn	x0, x0
	ret
	.cfi_endproc
.LFE1848:
	.size	_Z5f2_10m, .-_Z5f2_10m
	.align	2
	.p2align 4,,11
	.global	_Z5f2_11m
	.type	_Z5f2_11m, %function
_Z5f2_11m:
.LFB1849:
	.cfi_startproc
	lsl	x0, x0, 7
	ret
	.cfi_endproc
.LFE1849:
	.size	_Z5f2_11m, .-_Z5f2_11m
	.align	2
	.p2align 4,,11
	.global	_Z5f2_12m
	.type	_Z5f2_12m, %function
_Z5f2_12m:
.LFB1850:
	.cfi_startproc
	lsr	x0, x0, 7
	ret
	.cfi_endproc
.LFE1850:
	.size	_Z5f2_12m, .-_Z5f2_12m
	.align	2
	.p2align 4,,11
	.global	_Z5f2_13m
	.type	_Z5f2_13m, %function
_Z5f2_13m:
.LFB2445:
	.cfi_startproc
	lsl	x0, x0, 7
	ret
	.cfi_endproc
.LFE2445:
	.size	_Z5f2_13m, .-_Z5f2_13m
	.align	2
	.p2align 4,,11
	.global	_Z5f2_14mm
	.type	_Z5f2_14mm, %function
_Z5f2_14mm:
.LFB1852:
	.cfi_startproc
	lsr	x1, x0, 25
	orr	x0, x1, x0, lsl 7
	ret
	.cfi_endproc
.LFE1852:
	.size	_Z5f2_14mm, .-_Z5f2_14mm
	.align	2
	.p2align 4,,11
	.global	_Z5f2b_1ll
	.type	_Z5f2b_1ll, %function
_Z5f2b_1ll:
.LFB1853:
	.cfi_startproc
	add	x0, x0, x1
	ret
	.cfi_endproc
.LFE1853:
	.size	_Z5f2b_1ll, .-_Z5f2b_1ll
	.align	2
	.p2align 4,,11
	.global	_Z5f2b_2ll
	.type	_Z5f2b_2ll, %function
_Z5f2b_2ll:
.LFB1854:
	.cfi_startproc
	sub	x0, x0, x1
	ret
	.cfi_endproc
.LFE1854:
	.size	_Z5f2b_2ll, .-_Z5f2b_2ll
	.align	2
	.p2align 4,,11
	.global	_Z5f2b_3ll
	.type	_Z5f2b_3ll, %function
_Z5f2b_3ll:
.LFB1855:
	.cfi_startproc
	mul	x0, x0, x1
	ret
	.cfi_endproc
.LFE1855:
	.size	_Z5f2b_3ll, .-_Z5f2b_3ll
	.align	2
	.p2align 4,,11
	.global	_Z5f2b_4ll
	.type	_Z5f2b_4ll, %function
_Z5f2b_4ll:
.LFB1856:
	.cfi_startproc
	sdiv	x0, x0, x1
	ret
	.cfi_endproc
.LFE1856:
	.size	_Z5f2b_4ll, .-_Z5f2b_4ll
	.align	2
	.p2align 4,,11
	.global	_Z5f2b_5ll
	.type	_Z5f2b_5ll, %function
_Z5f2b_5ll:
.LFB1857:
	.cfi_startproc
	sdiv	x2, x0, x1
	msub	x0, x2, x1, x0
	ret
	.cfi_endproc
.LFE1857:
	.size	_Z5f2b_5ll, .-_Z5f2b_5ll
	.align	2
	.p2align 4,,11
	.global	_Z5f2b_6l
	.type	_Z5f2b_6l, %function
_Z5f2b_6l:
.LFB1858:
	.cfi_startproc
	neg	x0, x0
	ret
	.cfi_endproc
.LFE1858:
	.size	_Z5f2b_6l, .-_Z5f2b_6l
	.align	2
	.p2align 4,,11
	.global	_Z5f2b_7ll
	.type	_Z5f2b_7ll, %function
_Z5f2b_7ll:
.LFB1859:
	.cfi_startproc
	and	x0, x0, x1
	ret
	.cfi_endproc
.LFE1859:
	.size	_Z5f2b_7ll, .-_Z5f2b_7ll
	.align	2
	.p2align 4,,11
	.global	_Z5f2b_8ll
	.type	_Z5f2b_8ll, %function
_Z5f2b_8ll:
.LFB1860:
	.cfi_startproc
	orr	x0, x0, x1
	ret
	.cfi_endproc
.LFE1860:
	.size	_Z5f2b_8ll, .-_Z5f2b_8ll
	.align	2
	.p2align 4,,11
	.global	_Z5f2b_9ll
	.type	_Z5f2b_9ll, %function
_Z5f2b_9ll:
.LFB1861:
	.cfi_startproc
	eor	x0, x0, x1
	ret
	.cfi_endproc
.LFE1861:
	.size	_Z5f2b_9ll, .-_Z5f2b_9ll
	.align	2
	.p2align 4,,11
	.global	_Z6f2b_10l
	.type	_Z6f2b_10l, %function
_Z6f2b_10l:
.LFB1862:
	.cfi_startproc
	mvn	x0, x0
	ret
	.cfi_endproc
.LFE1862:
	.size	_Z6f2b_10l, .-_Z6f2b_10l
	.align	2
	.p2align 4,,11
	.global	_Z6f2b_11l
	.type	_Z6f2b_11l, %function
_Z6f2b_11l:
.LFB1863:
	.cfi_startproc
	lsl	x0, x0, 7
	ret
	.cfi_endproc
.LFE1863:
	.size	_Z6f2b_11l, .-_Z6f2b_11l
	.align	2
	.p2align 4,,11
	.global	_Z6f2b_12l
	.type	_Z6f2b_12l, %function
_Z6f2b_12l:
.LFB1864:
	.cfi_startproc
	asr	x0, x0, 7
	ret
	.cfi_endproc
.LFE1864:
	.size	_Z6f2b_12l, .-_Z6f2b_12l
	.align	2
	.p2align 4,,11
	.global	_Z6f2b_13l
	.type	_Z6f2b_13l, %function
_Z6f2b_13l:
.LFB2447:
	.cfi_startproc
	lsl	x0, x0, 7
	ret
	.cfi_endproc
.LFE2447:
	.size	_Z6f2b_13l, .-_Z6f2b_13l
	.align	2
	.p2align 4,,11
	.global	_Z5f2_14ll
	.type	_Z5f2_14ll, %function
_Z5f2_14ll:
.LFB1866:
	.cfi_startproc
	asr	x1, x0, 25
	orr	x0, x1, x0, lsl 7
	ret
	.cfi_endproc
.LFE1866:
	.size	_Z5f2_14ll, .-_Z5f2_14ll
	.align	2
	.p2align 4,,11
	.global	_Z4f3_1dd
	.type	_Z4f3_1dd, %function
_Z4f3_1dd:
.LFB1867:
	.cfi_startproc
	fadd	d0, d0, d1
	ret
	.cfi_endproc
.LFE1867:
	.size	_Z4f3_1dd, .-_Z4f3_1dd
	.align	2
	.p2align 4,,11
	.global	_Z4f3_2dd
	.type	_Z4f3_2dd, %function
_Z4f3_2dd:
.LFB1868:
	.cfi_startproc
	fsub	d0, d0, d1
	ret
	.cfi_endproc
.LFE1868:
	.size	_Z4f3_2dd, .-_Z4f3_2dd
	.align	2
	.p2align 4,,11
	.global	_Z4f3_3dd
	.type	_Z4f3_3dd, %function
_Z4f3_3dd:
.LFB1869:
	.cfi_startproc
	fmul	d0, d0, d1
	ret
	.cfi_endproc
.LFE1869:
	.size	_Z4f3_3dd, .-_Z4f3_3dd
	.align	2
	.p2align 4,,11
	.global	_Z4f3_4dd
	.type	_Z4f3_4dd, %function
_Z4f3_4dd:
.LFB1870:
	.cfi_startproc
	fdiv	d0, d0, d1
	ret
	.cfi_endproc
.LFE1870:
	.size	_Z4f3_4dd, .-_Z4f3_4dd
	.align	2
	.p2align 4,,11
	.global	_Z4f3_5d
	.type	_Z4f3_5d, %function
_Z4f3_5d:
.LFB1871:
	.cfi_startproc
	fneg	d0, d0
	ret
	.cfi_endproc
.LFE1871:
	.size	_Z4f3_5d, .-_Z4f3_5d
	.align	2
	.p2align 4,,11
	.global	_Z4f3_6d
	.type	_Z4f3_6d, %function
_Z4f3_6d:
.LFB1872:
	.cfi_startproc
	fcmp	d0, #0.0
	bpl	.L53
	b	sqrt
	.p2align 2,,3
.L53:
	fsqrt	d0, d0
	ret
	.cfi_endproc
.LFE1872:
	.size	_Z4f3_6d, .-_Z4f3_6d
	.align	2
	.p2align 4,,11
	.global	_Z4f3_7d
	.type	_Z4f3_7d, %function
_Z4f3_7d:
.LFB1873:
	.cfi_startproc
	b	sin
	.cfi_endproc
.LFE1873:
	.size	_Z4f3_7d, .-_Z4f3_7d
	.align	2
	.p2align 4,,11
	.global	_Z4f3_8d
	.type	_Z4f3_8d, %function
_Z4f3_8d:
.LFB1874:
	.cfi_startproc
	b	cos
	.cfi_endproc
.LFE1874:
	.size	_Z4f3_8d, .-_Z4f3_8d
	.align	2
	.p2align 4,,11
	.global	_Z4f3_9dd
	.type	_Z4f3_9dd, %function
_Z4f3_9dd:
.LFB1875:
	.cfi_startproc
	fmul	d1, d1, d1
	fmadd	d0, d0, d0, d1
	fcmp	d0, #0.0
	bpl	.L62
	b	sqrt
	.p2align 2,,3
.L62:
	fsqrt	d0, d0
	ret
	.cfi_endproc
.LFE1875:
	.size	_Z4f3_9dd, .-_Z4f3_9dd
	.align	2
	.p2align 4,,11
	.global	_Z5f3_10dd
	.type	_Z5f3_10dd, %function
_Z5f3_10dd:
.LFB1876:
	.cfi_startproc
	b	pow
	.cfi_endproc
.LFE1876:
	.size	_Z5f3_10dd, .-_Z5f3_10dd
	.align	2
	.p2align 4,,11
	.global	_Z5f3_11d
	.type	_Z5f3_11d, %function
_Z5f3_11d:
.LFB1877:
	.cfi_startproc
	b	exp
	.cfi_endproc
.LFE1877:
	.size	_Z5f3_11d, .-_Z5f3_11d
	.align	2
	.p2align 4,,11
	.global	_Z5f3_12d
	.type	_Z5f3_12d, %function
_Z5f3_12d:
.LFB1878:
	.cfi_startproc
	b	log
	.cfi_endproc
.LFE1878:
	.size	_Z5f3_12d, .-_Z5f3_12d
	.align	2
	.p2align 4,,11
	.global	_Z5f3_13d
	.type	_Z5f3_13d, %function
_Z5f3_13d:
.LFB1879:
	.cfi_startproc
	fabs	d0, d0
	ret
	.cfi_endproc
.LFE1879:
	.size	_Z5f3_13d, .-_Z5f3_13d
	.align	2
	.p2align 4,,11
	.global	_Z5f3_14dd
	.type	_Z5f3_14dd, %function
_Z5f3_14dd:
.LFB1880:
	.cfi_startproc
	fcmpe	d0, d1
	fcsel	d0, d1, d0, mi
	ret
	.cfi_endproc
.LFE1880:
	.size	_Z5f3_14dd, .-_Z5f3_14dd
	.align	2
	.p2align 4,,11
	.global	_Z5f3_15ddd
	.type	_Z5f3_15ddd, %function
_Z5f3_15ddd:
.LFB1882:
	.cfi_startproc
	fmadd	d0, d0, d1, d2
	ret
	.cfi_endproc
.LFE1882:
	.size	_Z5f3_15ddd, .-_Z5f3_15ddd
	.align	2
	.p2align 4,,11
	.global	_Z4f4_1ff
	.type	_Z4f4_1ff, %function
_Z4f4_1ff:
.LFB1883:
	.cfi_startproc
	fadd	s0, s0, s1
	ret
	.cfi_endproc
.LFE1883:
	.size	_Z4f4_1ff, .-_Z4f4_1ff
	.align	2
	.p2align 4,,11
	.global	_Z4f4_2ff
	.type	_Z4f4_2ff, %function
_Z4f4_2ff:
.LFB1884:
	.cfi_startproc
	fsub	s0, s0, s1
	ret
	.cfi_endproc
.LFE1884:
	.size	_Z4f4_2ff, .-_Z4f4_2ff
	.align	2
	.p2align 4,,11
	.global	_Z4f4_3ff
	.type	_Z4f4_3ff, %function
_Z4f4_3ff:
.LFB1885:
	.cfi_startproc
	fmul	s0, s0, s1
	ret
	.cfi_endproc
.LFE1885:
	.size	_Z4f4_3ff, .-_Z4f4_3ff
	.align	2
	.p2align 4,,11
	.global	_Z4f4_4ff
	.type	_Z4f4_4ff, %function
_Z4f4_4ff:
.LFB1886:
	.cfi_startproc
	fdiv	s0, s0, s1
	ret
	.cfi_endproc
.LFE1886:
	.size	_Z4f4_4ff, .-_Z4f4_4ff
	.align	2
	.p2align 4,,11
	.global	_Z4f5_1d
	.type	_Z4f5_1d, %function
_Z4f5_1d:
.LFB1887:
	.cfi_startproc
	fcvtzs	w0, d0
	ret
	.cfi_endproc
.LFE1887:
	.size	_Z4f5_1d, .-_Z4f5_1d
	.align	2
	.p2align 4,,11
	.global	_Z4f5_2d
	.type	_Z4f5_2d, %function
_Z4f5_2d:
.LFB1888:
	.cfi_startproc
	fcvtas	w0, d0
	ret
	.cfi_endproc
.LFE1888:
	.size	_Z4f5_2d, .-_Z4f5_2d
	.align	2
	.p2align 4,,11
	.global	_Z4f5_3d
	.type	_Z4f5_3d, %function
_Z4f5_3d:
.LFB1889:
	.cfi_startproc
	fcvtau	x0, d0
	ret
	.cfi_endproc
.LFE1889:
	.size	_Z4f5_3d, .-_Z4f5_3d
	.align	2
	.p2align 4,,11
	.global	_Z4f5_4i
	.type	_Z4f5_4i, %function
_Z4f5_4i:
.LFB1890:
	.cfi_startproc
	scvtf	d1, w0
	fmov	d0, 5.0e-1
	fadd	d0, d1, d0
	ret
	.cfi_endproc
.LFE1890:
	.size	_Z4f5_4i, .-_Z4f5_4i
	.align	2
	.p2align 4,,11
	.global	_Z4f5_5i
	.type	_Z4f5_5i, %function
_Z4f5_5i:
.LFB1891:
	.cfi_startproc
	scvtf	d0, w0
	ret
	.cfi_endproc
.LFE1891:
	.size	_Z4f5_5i, .-_Z4f5_5i
	.align	2
	.p2align 4,,11
	.global	_Z4f6_1f
	.type	_Z4f6_1f, %function
_Z4f6_1f:
.LFB1892:
	.cfi_startproc
	fcvtzs	w0, s0
	ret
	.cfi_endproc
.LFE1892:
	.size	_Z4f6_1f, .-_Z4f6_1f
	.align	2
	.p2align 4,,11
	.global	_Z4f6_2f
	.type	_Z4f6_2f, %function
_Z4f6_2f:
.LFB1893:
	.cfi_startproc
	fcvtas	w0, s0
	ret
	.cfi_endproc
.LFE1893:
	.size	_Z4f6_2f, .-_Z4f6_2f
	.align	2
	.p2align 4,,11
	.global	_Z4f6_3f
	.type	_Z4f6_3f, %function
_Z4f6_3f:
.LFB1894:
	.cfi_startproc
	fcvtau	x0, s0
	ret
	.cfi_endproc
.LFE1894:
	.size	_Z4f6_3f, .-_Z4f6_3f
	.align	2
	.p2align 4,,11
	.global	_Z4f6_4i
	.type	_Z4f6_4i, %function
_Z4f6_4i:
.LFB1895:
	.cfi_startproc
	scvtf	d0, w0
	fmov	d1, 5.0e-1
	fadd	d0, d0, d1
	fcvt	s0, d0
	ret
	.cfi_endproc
.LFE1895:
	.size	_Z4f6_4i, .-_Z4f6_4i
	.align	2
	.p2align 4,,11
	.global	_Z4f6_5i
	.type	_Z4f6_5i, %function
_Z4f6_5i:
.LFB1896:
	.cfi_startproc
	scvtf	s0, w0
	ret
	.cfi_endproc
.LFE1896:
	.size	_Z4f6_5i, .-_Z4f6_5i
	.align	2
	.p2align 4,,11
	.global	_Z4f7_1i
	.type	_Z4f7_1i, %function
_Z4f7_1i:
.LFB1897:
	.cfi_startproc
	add	w0, w0, w0, lsl 1
	ret
	.cfi_endproc
.LFE1897:
	.size	_Z4f7_1i, .-_Z4f7_1i
	.align	2
	.p2align 4,,11
	.global	_Z4f7_2ii
	.type	_Z4f7_2ii, %function
_Z4f7_2ii:
.LFB1898:
	.cfi_startproc
	add	w0, w0, w0, lsl 2
	add	w0, w0, w1, lsl 3
	ret
	.cfi_endproc
.LFE1898:
	.size	_Z4f7_2ii, .-_Z4f7_2ii
	.align	2
	.p2align 4,,11
	.global	_Z4f7_3iii
	.type	_Z4f7_3iii, %function
_Z4f7_3iii:
.LFB1899:
	.cfi_startproc
	add	w0, w0, w1
	add	w0, w0, w2
	ret
	.cfi_endproc
.LFE1899:
	.size	_Z4f7_3iii, .-_Z4f7_3iii
	.align	2
	.p2align 4,,11
	.global	_Z4f7_4iiii
	.type	_Z4f7_4iiii, %function
_Z4f7_4iiii:
.LFB1900:
	.cfi_startproc
	add	w0, w0, w1
	add	w0, w0, w2
	add	w0, w0, w3
	ret
	.cfi_endproc
.LFE1900:
	.size	_Z4f7_4iiii, .-_Z4f7_4iiii
	.align	2
	.p2align 4,,11
	.global	_Z4f7_5iiiii
	.type	_Z4f7_5iiiii, %function
_Z4f7_5iiiii:
.LFB1901:
	.cfi_startproc
	add	w0, w0, w1
	add	w0, w0, w2
	add	w0, w0, w3
	add	w0, w0, w4
	ret
	.cfi_endproc
.LFE1901:
	.size	_Z4f7_5iiiii, .-_Z4f7_5iiiii
	.align	2
	.p2align 4,,11
	.global	_Z4f8_1d
	.type	_Z4f8_1d, %function
_Z4f8_1d:
.LFB1902:
	.cfi_startproc
	fmov	d1, 3.0e+0
	fmul	d0, d0, d1
	ret
	.cfi_endproc
.LFE1902:
	.size	_Z4f8_1d, .-_Z4f8_1d
	.align	2
	.p2align 4,,11
	.global	_Z4f8_2dd
	.type	_Z4f8_2dd, %function
_Z4f8_2dd:
.LFB1903:
	.cfi_startproc
	fmov	d3, 8.0e+0
	fmov	d2, 5.0e+0
	fmul	d1, d1, d3
	fmadd	d0, d0, d2, d1
	ret
	.cfi_endproc
.LFE1903:
	.size	_Z4f8_2dd, .-_Z4f8_2dd
	.align	2
	.p2align 4,,11
	.global	_Z4f8_3ddd
	.type	_Z4f8_3ddd, %function
_Z4f8_3ddd:
.LFB1904:
	.cfi_startproc
	fadd	d0, d0, d1
	fadd	d0, d0, d2
	ret
	.cfi_endproc
.LFE1904:
	.size	_Z4f8_3ddd, .-_Z4f8_3ddd
	.align	2
	.p2align 4,,11
	.global	_Z4f8_4dddd
	.type	_Z4f8_4dddd, %function
_Z4f8_4dddd:
.LFB1905:
	.cfi_startproc
	fadd	d0, d0, d1
	fadd	d0, d0, d2
	fadd	d0, d0, d3
	ret
	.cfi_endproc
.LFE1905:
	.size	_Z4f8_4dddd, .-_Z4f8_4dddd
	.align	2
	.p2align 4,,11
	.global	_Z4f8_5ddddd
	.type	_Z4f8_5ddddd, %function
_Z4f8_5ddddd:
.LFB1906:
	.cfi_startproc
	fadd	d1, d0, d1
	fadd	d1, d1, d2
	fadd	d1, d1, d3
	fadd	d0, d1, d4
	ret
	.cfi_endproc
.LFE1906:
	.size	_Z4f8_5ddddd, .-_Z4f8_5ddddd
	.align	2
	.p2align 4,,11
	.global	_Z4f8_6PKddmfd
	.type	_Z4f8_6PKddmfd, %function
_Z4f8_6PKddmfd:
.LFB1907:
	.cfi_startproc
	ldr	d4, [x0, 24]
	ucvtf	d3, x1
	fcvt	d1, s1
	fadd	d0, d0, d4
	fadd	d0, d0, d3
	fadd	d0, d0, d1
	fadd	d0, d0, d2
	ret
	.cfi_endproc
.LFE1907:
	.size	_Z4f8_6PKddmfd, .-_Z4f8_6PKddmfd
	.align	2
	.p2align 4,,11
	.global	_Z6f9_sumPKii
	.type	_Z6f9_sumPKii, %function
_Z6f9_sumPKii:
.LFB1908:
	.cfi_startproc
	mov	x4, x0
	cmp	w1, 0
	ble	.L101
	mov	x2, 0
	mov	w0, 0
	.p2align 3,,7
.L100:
	ldr	w3, [x4, x2, lsl 2]
	add	x2, x2, 1
	add	w0, w0, w3
	cmp	w1, w2
	bgt	.L100
	ret
	.p2align 2,,3
.L101:
	mov	w0, 0
	ret
	.cfi_endproc
.LFE1908:
	.size	_Z6f9_sumPKii, .-_Z6f9_sumPKii
	.align	2
	.p2align 4,,11
	.global	_Z6f9_sumPKci
	.type	_Z6f9_sumPKci, %function
_Z6f9_sumPKci:
.LFB1909:
	.cfi_startproc
	cmp	w1, 0
	ble	.L106
	add	x3, x0, 1
	sub	w1, w1, #1
	add	x3, x3, x1
	mov	x2, x0
	mov	w0, 0
	.p2align 3,,7
.L105:
	ldrb	w1, [x2], 1
	add	w0, w0, w1
	cmp	x2, x3
	bne	.L105
	ret
	.p2align 2,,3
.L106:
	mov	w0, 0
	ret
	.cfi_endproc
.LFE1909:
	.size	_Z6f9_sumPKci, .-_Z6f9_sumPKci
	.align	2
	.p2align 4,,11
	.global	_Z9f9_demeanPdi
	.type	_Z9f9_demeanPdi, %function
_Z9f9_demeanPdi:
.LFB1910:
	.cfi_startproc
	movi	d0, #0
	mov	x2, 0
	cmp	w1, 0
	ble	.L108
	.p2align 3,,7
.L109:
	ldr	d1, [x0, x2, lsl 3]
	add	x2, x2, 1
	fadd	d0, d0, d1
	cmp	w1, w2
	bgt	.L109
	scvtf	d1, w1
	mov	x2, 0
	fdiv	d1, d0, d1
	.p2align 3,,7
.L112:
	ldr	d0, [x0, x2, lsl 3]
	fsub	d0, d0, d1
	str	d0, [x0, x2, lsl 3]
	add	x2, x2, 1
	cmp	w1, w2
	bgt	.L112
.L108:
	ret
	.cfi_endproc
.LFE1910:
	.size	_Z9f9_demeanPdi, .-_Z9f9_demeanPdi
	.align	2
	.p2align 4,,11
	.global	_Z5f10_1PKdjRdS1_S1_
	.type	_Z5f10_1PKdjRdS1_S1_, %function
_Z5f10_1PKdjRdS1_S1_:
.LFB1911:
	.cfi_startproc
	sub	sp, sp, #16
	.cfi_def_cfa_offset 16
	ldr	d1, [x0]
	mov	x5, x3
	str	x3, [sp, 8]
	fmov	d3, d1
	fmov	d2, d1
	cmp	w1, 1
	bls	.L116
	mov	x3, 1
	.p2align 3,,7
.L119:
	ldr	d0, [x0, x3, lsl 3]
	fcmpe	d0, d2
	fadd	d1, d1, d0
	bmi	.L121
	fcmpe	d0, d3
	bgt	.L122
.L117:
	add	x3, x3, 1
	cmp	w1, w3
	bhi	.L119
.L116:
	ucvtf	d0, w1
	fdiv	d1, d1, d0
	str	d1, [x2]
	str	d2, [x5]
	str	d3, [x4]
	add	sp, sp, 16
	.cfi_remember_state
	.cfi_def_cfa_offset 0
	ret
	.p2align 2,,3
.L121:
	.cfi_restore_state
	fmov	d2, d0
	b	.L117
	.p2align 2,,3
.L122:
	fmov	d3, d0
	b	.L117
	.cfi_endproc
.LFE1911:
	.size	_Z5f10_1PKdjRdS1_S1_, .-_Z5f10_1PKdjRdS1_S1_
	.section	.rodata.str1.8,"aMS",@progbits,1
	.align	3
.LC0:
	.string	"test.dat"
	.align	3
.LC1:
	.string	"wrote "
	.align	3
.LC2:
	.string	"temp"
	.text
	.align	2
	.p2align 4,,11
	.global	_Z3f11v
	.type	_Z3f11v, %function
_Z3f11v:
.LFB1912:
	.cfi_startproc
	stp	x29, x30, [sp, -64]!
	.cfi_def_cfa_offset 64
	.cfi_offset 29, -64
	.cfi_offset 30, -56
	mov	w1, 1
	adrp	x0, .LC0
	mov	x29, sp
	add	x0, x0, :lo12:.LC0
	stp	x19, x20, [sp, 16]
	.cfi_offset 19, -48
	.cfi_offset 20, -40
	adrp	x19, :got:_ZSt4cout
	str	x21, [sp, 32]
	.cfi_offset 21, -32
	bl	open
	mov	x3, 25972
	mov	w20, w0
	movk	x3, 0x7473, lsl 16
	add	x1, sp, 56
	movk	x3, 0x6e69, lsl 32
	mov	x2, 8
	movk	x3, 0x67, lsl 48
	str	x3, [sp, 56]
	bl	write
	mov	x21, x0
	ldr	x19, [x19, #:got_lo12:_ZSt4cout]
	mov	x2, 6
	adrp	x1, .LC1
	add	x1, x1, :lo12:.LC1
	mov	x0, x19
	bl	_ZSt16__ostream_insertIcSt11char_traitsIcEERSt13basic_ostreamIT_T0_ES6_PKS3_l
	mov	w1, w21
	mov	x0, x19
	bl	_ZNSolsEi
	mov	w3, 10
	add	x1, sp, 55
	mov	x2, 1
	strb	w3, [sp, 55]
	bl	_ZSt16__ostream_insertIcSt11char_traitsIcEERSt13basic_ostreamIT_T0_ES6_PKS3_l
	mov	w0, w20
	bl	close
	mov	w1, 448
	adrp	x0, .LC2
	add	x0, x0, :lo12:.LC2
	bl	mkdir
	ldp	x19, x20, [sp, 16]
	ldr	x21, [sp, 32]
	ldp	x29, x30, [sp], 64
	.cfi_restore 30
	.cfi_restore 29
	.cfi_restore 21
	.cfi_restore 19
	.cfi_restore 20
	.cfi_def_cfa_offset 0
	ret
	.cfi_endproc
.LFE1912:
	.size	_Z3f11v, .-_Z3f11v
	.align	2
	.p2align 4,,11
	.global	_Z9f12_whilei
	.type	_Z9f12_whilei, %function
_Z9f12_whilei:
.LFB1913:
	.cfi_startproc
	cmp	w0, 0
	ble	.L132
	stp	x29, x30, [sp, -32]!
	.cfi_def_cfa_offset 32
	.cfi_offset 29, -32
	.cfi_offset 30, -24
	mov	x29, sp
	stp	x19, x20, [sp, 16]
	.cfi_offset 19, -16
	.cfi_offset 20, -8
	adrp	x20, :got:_ZSt4cout
	mov	w19, w0
	ldr	x20, [x20, #:got_lo12:_ZSt4cout]
	.p2align 3,,7
.L129:
	mov	w1, w19
	mov	x0, x20
	bl	_ZNSolsEi
	subs	w19, w19, #1
	bne	.L129
	ldp	x19, x20, [sp, 16]
	ldp	x29, x30, [sp], 32
	.cfi_restore 30
	.cfi_restore 29
	.cfi_restore 19
	.cfi_restore 20
	.cfi_def_cfa_offset 0
	ret
	.p2align 2,,3
.L132:
	ret
	.cfi_endproc
.LFE1913:
	.size	_Z9f12_whilei, .-_Z9f12_whilei
	.align	2
	.p2align 4,,11
	.global	_Z7f12_fori
	.type	_Z7f12_fori, %function
_Z7f12_fori:
.LFB1914:
	.cfi_startproc
	cmp	w0, 0
	ble	.L140
	stp	x29, x30, [sp, -48]!
	.cfi_def_cfa_offset 48
	.cfi_offset 29, -48
	.cfi_offset 30, -40
	mov	x29, sp
	str	x21, [sp, 32]
	.cfi_offset 21, -16
	adrp	x21, :got:_ZSt4cout
	stp	x19, x20, [sp, 16]
	.cfi_offset 19, -32
	.cfi_offset 20, -24
	mov	w20, w0
	mov	w19, 0
	ldr	x21, [x21, #:got_lo12:_ZSt4cout]
	.p2align 3,,7
.L137:
	mov	w1, w19
	mov	x0, x21
	add	w19, w19, 1
	bl	_ZNSolsEi
	cmp	w20, w19
	bne	.L137
	ldp	x19, x20, [sp, 16]
	ldr	x21, [sp, 32]
	ldp	x29, x30, [sp], 48
	.cfi_restore 30
	.cfi_restore 29
	.cfi_restore 21
	.cfi_restore 19
	.cfi_restore 20
	.cfi_def_cfa_offset 0
	ret
	.p2align 2,,3
.L140:
	ret
	.cfi_endproc
.LFE1914:
	.size	_Z7f12_fori, .-_Z7f12_fori
	.align	2
	.p2align 4,,11
	.global	_Z18f12_for_optimized1i
	.type	_Z18f12_for_optimized1i, %function
_Z18f12_for_optimized1i:
.LFB1915:
	.cfi_startproc
	cmp	w0, 0
	ble	.L146
	add	w2, w0, 1
	mov	w1, 1
	mov	w0, 0
	.p2align 3,,7
.L145:
	add	w0, w0, w1
	add	w1, w1, 1
	cmp	w1, w2
	bne	.L145
	ret
	.p2align 2,,3
.L146:
	mov	w0, 0
	ret
	.cfi_endproc
.LFE1915:
	.size	_Z18f12_for_optimized1i, .-_Z18f12_for_optimized1i
	.align	2
	.p2align 4,,11
	.global	_Z18f12_for_optimized2i
	.type	_Z18f12_for_optimized2i, %function
_Z18f12_for_optimized2i:
.LFB1916:
	.cfi_startproc
	mov	w0, 5
	ret
	.cfi_endproc
.LFE1916:
	.size	_Z18f12_for_optimized2i, .-_Z18f12_for_optimized2i
	.align	2
	.p2align 4,,11
	.global	_Z18f12_for_optimized2v
	.type	_Z18f12_for_optimized2v, %function
_Z18f12_for_optimized2v:
.LFB1917:
	.cfi_startproc
	mov	w0, 5050
	ret
	.cfi_endproc
.LFE1917:
	.size	_Z18f12_for_optimized2v, .-_Z18f12_for_optimized2v
	.align	2
	.p2align 4,,11
	.global	_Z10f12_while2i
	.type	_Z10f12_while2i, %function
_Z10f12_while2i:
.LFB2453:
	.cfi_startproc
	cmp	w0, 0
	ble	.L153
	add	w2, w0, 1
	mov	w1, 1
	mov	w0, 0
	.p2align 3,,7
.L152:
	add	w0, w0, w1
	add	w1, w1, 1
	cmp	w1, w2
	bne	.L152
	ret
	.p2align 2,,3
.L153:
	mov	w0, 0
	ret
	.cfi_endproc
.LFE2453:
	.size	_Z10f12_while2i, .-_Z10f12_while2i
	.align	2
	.p2align 4,,11
	.global	_Z25f12_call_function_in_loopv
	.type	_Z25f12_call_function_in_loopv, %function
_Z25f12_call_function_in_loopv:
.LFB1919:
	.cfi_startproc
	stp	x29, x30, [sp, -32]!
	.cfi_def_cfa_offset 32
	.cfi_offset 29, -32
	.cfi_offset 30, -24
	mov	x29, sp
	str	x19, [sp, 16]
	.cfi_offset 19, -16
	mov	w19, 10
	.p2align 3,,7
.L156:
	bl	_Z1fv
	subs	w19, w19, #1
	bne	.L156
	ldr	x19, [sp, 16]
	ldp	x29, x30, [sp], 32
	.cfi_restore 30
	.cfi_restore 29
	.cfi_restore 19
	.cfi_def_cfa_offset 0
	ret
	.cfi_endproc
.LFE1919:
	.size	_Z25f12_call_function_in_loopv, .-_Z25f12_call_function_in_loopv
	.align	2
	.p2align 4,,11
	.global	_Z13f12_call_funcv
	.type	_Z13f12_call_funcv, %function
_Z13f12_call_funcv:
.LFB2455:
	.cfi_startproc
	stp	x29, x30, [sp, -32]!
	.cfi_def_cfa_offset 32
	.cfi_offset 29, -32
	.cfi_offset 30, -24
	mov	x29, sp
	str	x19, [sp, 16]
	.cfi_offset 19, -16
	mov	w19, 10
	.p2align 3,,7
.L160:
	bl	_Z1fv
	subs	w19, w19, #1
	bne	.L160
	ldr	x19, [sp, 16]
	ldp	x29, x30, [sp], 32
	.cfi_restore 30
	.cfi_restore 29
	.cfi_restore 19
	.cfi_def_cfa_offset 0
	ret
	.cfi_endproc
.LFE2455:
	.size	_Z13f12_call_funcv, .-_Z13f12_call_funcv
	.align	2
	.p2align 4,,11
	.global	_Z12f12_do_whilei
	.type	_Z12f12_do_whilei, %function
_Z12f12_do_whilei:
.LFB1921:
	.cfi_startproc
	mov	w3, w0
	mov	w1, 1
	mov	w0, 0
	.p2align 3,,7
.L164:
	add	w0, w0, w1
	cmp	w1, w3
	add	w1, w1, 1
	ble	.L164
	ret
	.cfi_endproc
.LFE1921:
	.size	_Z12f12_do_whilei, .-_Z12f12_do_whilei
	.align	2
	.p2align 4,,11
	.global	_Z10f12_switchi
	.type	_Z10f12_switchi, %function
_Z10f12_switchi:
.LFB1922:
	.cfi_startproc
	sub	w0, w0, #1
	cmp	w0, 3
	bhi	.L168
	adrp	x1, .LANCHOR0
	add	x1, x1, :lo12:.LANCHOR0
	ldr	w0, [x1, w0, uxtw 2]
	ret
	.p2align 2,,3
.L168:
	mov	w0, 0
	ret
	.cfi_endproc
.LFE1922:
	.size	_Z10f12_switchi, .-_Z10f12_switchi
	.align	2
	.p2align 4,,11
	.global	_Z11f12_switch2i
	.type	_Z11f12_switch2i, %function
_Z11f12_switch2i:
.LFB1923:
	.cfi_startproc
	mov	w1, w0
	cmp	w0, 3
	beq	.L175
	bgt	.L171
	mov	w0, 5
	cmp	w1, 1
	beq	.L169
	cmp	w1, 2
	mov	w0, 9
	mov	w1, 4
	csel	w0, w0, w1, eq
.L169:
	ret
	.p2align 2,,3
.L171:
	cmp	w0, 4
	cset	w0, eq
	add	w0, w0, 4
	ret
	.p2align 2,,3
.L175:
	mov	w0, 8
	ret
	.cfi_endproc
.LFE1923:
	.size	_Z11f12_switch2i, .-_Z11f12_switch2i
	.align	2
	.p2align 4,,11
	.global	_Z14f12_nested_fori
	.type	_Z14f12_nested_fori, %function
_Z14f12_nested_fori:
.LFB1924:
	.cfi_startproc
	cmp	w0, 0
	ble	.L184
	add	w4, w0, 1
	mov	w3, 1
	mov	w0, 0
	.p2align 3,,7
.L183:
	mov	w2, w3
	mov	w1, 1
	.p2align 3,,7
.L182:
	add	w1, w1, 1
	add	w0, w0, w2
	add	w2, w2, w3
	cmp	w1, w4
	bne	.L182
	add	w3, w3, 1
	cmp	w3, w4
	bne	.L183
	ret
.L184:
	mov	w0, 0
	ret
	.cfi_endproc
.LFE1924:
	.size	_Z14f12_nested_fori, .-_Z14f12_nested_fori
	.align	2
	.p2align 4,,11
	.global	_Z9testvec3dv
	.type	_Z9testvec3dv, %function
_Z9testvec3dv:
.LFB1932:
	.cfi_startproc
	stp	x29, x30, [sp, -112]!
	.cfi_def_cfa_offset 112
	.cfi_offset 29, -112
	.cfi_offset 30, -104
	adrp	x0, :got:_ZSt3cin
	mov	x29, sp
	ldr	x0, [x0, #:got_lo12:_ZSt3cin]
	add	x1, sp, 88
	stp	x19, x20, [sp, 16]
	stp	x21, x22, [sp, 32]
	stp	d8, d9, [sp, 48]
	stp	d10, d11, [sp, 64]
	.cfi_offset 19, -96
	.cfi_offset 20, -88
	.cfi_offset 21, -80
	.cfi_offset 22, -72
	.cfi_offset 72, -64
	.cfi_offset 73, -56
	.cfi_offset 74, -48
	.cfi_offset 75, -40
	bl	_ZNSi10_M_extractIdEERSiRT_
	add	x1, sp, 96
	bl	_ZNSi10_M_extractIdEERSiRT_
	add	x1, sp, 104
	bl	_ZNSi10_M_extractIdEERSiRT_
	ldp	d11, d9, [sp, 88]
	ldr	d10, [sp, 104]
	fmul	d8, d9, d9
	fmadd	d8, d11, d11, d8
	fmadd	d8, d10, d10, d8
	fcmp	d8, #0.0
	bpl	.L191
	fmov	d0, d8
	adrp	x20, :got:_ZSt4cout
	add	x19, sp, 87
	bl	sqrt
	ldr	x0, [x20, #:got_lo12:_ZSt4cout]
	bl	_ZNSo9_M_insertIdEERSoT_
	mov	w3, 10
	mov	x1, x19
	mov	x2, 1
	strb	w3, [sp, 87]
	bl	_ZSt16__ostream_insertIcSt11char_traitsIcEERSt13basic_ostreamIT_T0_ES6_PKS3_l
	fmov	d0, d8
	bl	sqrt
	fmov	d8, d0
	b	.L190
	.p2align 2,,3
.L191:
	fsqrt	d8, d8
	adrp	x20, :got:_ZSt4cout
	add	x19, sp, 87
	ldr	x0, [x20, #:got_lo12:_ZSt4cout]
	fmov	d0, d8
	bl	_ZNSo9_M_insertIdEERSoT_
	mov	w3, 10
	mov	x1, x19
	mov	x2, 1
	strb	w3, [sp, 87]
	bl	_ZSt16__ostream_insertIcSt11char_traitsIcEERSt13basic_ostreamIT_T0_ES6_PKS3_l
.L190:
	fmov	d0, d8
	mov	w21, 10
	ldr	x20, [x20, #:got_lo12:_ZSt4cout]
	mov	w22, 44
	mov	x0, x20
	bl	_ZNSo9_M_insertIdEERSoT_
	mov	x1, x19
	mov	x2, 1
	strb	w21, [sp, 87]
	bl	_ZSt16__ostream_insertIcSt11char_traitsIcEERSt13basic_ostreamIT_T0_ES6_PKS3_l
	ldp	d0, d2, [sp, 88]
	fmov	d3, 1.0e+0
	ldr	d1, [sp, 104]
	fmov	d4, 2.0e+0
	mov	x0, x20
	fadd	d0, d0, d3
	fadd	d2, d2, d4
	fsub	d1, d1, d3
	fadd	d9, d2, d9
	fadd	d0, d0, d11
	fadd	d10, d1, d10
	bl	_ZNSo9_M_insertIdEERSoT_
	strb	w22, [sp, 87]
	mov	x1, x19
	mov	x2, 1
	bl	_ZSt16__ostream_insertIcSt11char_traitsIcEERSt13basic_ostreamIT_T0_ES6_PKS3_l
	fmov	d0, d9
	bl	_ZNSo9_M_insertIdEERSoT_
	strb	w22, [sp, 87]
	mov	x1, x19
	mov	x2, 1
	bl	_ZSt16__ostream_insertIcSt11char_traitsIcEERSt13basic_ostreamIT_T0_ES6_PKS3_l
	fmov	d0, d10
	bl	_ZNSo9_M_insertIdEERSoT_
	strb	w21, [sp, 87]
	mov	x1, x19
	mov	x2, 1
	bl	_ZSt16__ostream_insertIcSt11char_traitsIcEERSt13basic_ostreamIT_T0_ES6_PKS3_l
	ldp	x19, x20, [sp, 16]
	ldp	x21, x22, [sp, 32]
	ldp	d8, d9, [sp, 48]
	ldp	d10, d11, [sp, 64]
	ldp	x29, x30, [sp], 112
	.cfi_restore 30
	.cfi_restore 29
	.cfi_restore 21
	.cfi_restore 22
	.cfi_restore 19
	.cfi_restore 20
	.cfi_restore 74
	.cfi_restore 75
	.cfi_restore 72
	.cfi_restore 73
	.cfi_def_cfa_offset 0
	ret
	.cfi_endproc
.LFE1932:
	.size	_Z9testvec3dv, .-_Z9testvec3dv
	.align	2
	.p2align 4,,11
	.global	_ZNK5vec3d3addES_
	.type	_ZNK5vec3d3addES_, %function
_ZNK5vec3d3addES_:
.LFB1933:
	.cfi_startproc
	ldp	d5, d4, [x0]
	sub	sp, sp, #96
	.cfi_def_cfa_offset 96
	ldr	d3, [x0, 16]
	add	sp, sp, 96
	.cfi_def_cfa_offset 0
	fadd	d0, d5, d0
	fadd	d1, d4, d1
	fadd	d2, d3, d2
	ret
	.cfi_endproc
.LFE1933:
	.size	_ZNK5vec3d3addES_, .-_ZNK5vec3d3addES_
	.align	2
	.p2align 4,,11
	.global	_Z6param4iiii
	.type	_Z6param4iiii, %function
_Z6param4iiii:
.LFB2449:
	.cfi_startproc
	add	w0, w0, w1
	add	w0, w0, w2
	add	w0, w0, w3
	ret
	.cfi_endproc
.LFE2449:
	.size	_Z6param4iiii, .-_Z6param4iiii
	.align	2
	.p2align 4,,11
	.global	_Z6param5iiiii
	.type	_Z6param5iiiii, %function
_Z6param5iiiii:
.LFB2451:
	.cfi_startproc
	add	w0, w0, w1
	add	w0, w0, w2
	add	w0, w0, w3
	add	w0, w0, w4
	ret
	.cfi_endproc
.LFE2451:
	.size	_Z6param5iiiii, .-_Z6param5iiiii
	.align	2
	.p2align 4,,11
	.global	_Z6param8iiiiiiii
	.type	_Z6param8iiiiiiii, %function
_Z6param8iiiiiiii:
.LFB1936:
	.cfi_startproc
	add	w0, w0, w1
	add	w0, w0, w2
	add	w0, w0, w3
	add	w0, w0, w4
	add	w0, w0, w5
	add	w0, w0, w6
	add	w0, w0, w7
	ret
	.cfi_endproc
.LFE1936:
	.size	_Z6param8iiiiiiii, .-_Z6param8iiiiiiii
	.align	2
	.p2align 4,,11
	.global	_Z6param9iiiiiiiii
	.type	_Z6param9iiiiiiiii, %function
_Z6param9iiiiiiiii:
.LFB1937:
	.cfi_startproc
	add	w0, w0, w1
	ldr	w1, [sp]
	add	w0, w0, w2
	add	w0, w0, w3
	add	w0, w0, w4
	add	w0, w0, w5
	add	w0, w0, w6
	add	w0, w0, w7
	add	w0, w0, w1
	ret
	.cfi_endproc
.LFE1937:
	.size	_Z6param9iiiiiiiii, .-_Z6param9iiiiiiiii
	.align	2
	.p2align 4,,11
	.global	_Z6param4mmmm
	.type	_Z6param4mmmm, %function
_Z6param4mmmm:
.LFB1938:
	.cfi_startproc
	add	x0, x0, x1
	add	x2, x2, x3
	add	x0, x2, x0
	ret
	.cfi_endproc
.LFE1938:
	.size	_Z6param4mmmm, .-_Z6param4mmmm
	.align	2
	.p2align 4,,11
	.global	_Z6param5mmmmm
	.type	_Z6param5mmmmm, %function
_Z6param5mmmmm:
.LFB1939:
	.cfi_startproc
	add	x1, x1, x2
	add	x3, x3, x4
	add	x3, x3, x1
	add	x0, x3, x0
	ret
	.cfi_endproc
.LFE1939:
	.size	_Z6param5mmmmm, .-_Z6param5mmmmm
	.align	2
	.p2align 4,,11
	.global	_Z6param8mmmmmmmm
	.type	_Z6param8mmmmmmmm, %function
_Z6param8mmmmmmmm:
.LFB1940:
	.cfi_startproc
	add	x4, x4, x5
	add	x6, x6, x7
	add	x6, x6, x4
	add	x2, x2, x3
	add	x6, x6, x2
	add	x0, x0, x1
	add	x0, x6, x0
	ret
	.cfi_endproc
.LFE1940:
	.size	_Z6param8mmmmmmmm, .-_Z6param8mmmmmmmm
	.align	2
	.p2align 4,,11
	.global	_Z6param9mmmmmmmmm
	.type	_Z6param9mmmmmmmmm, %function
_Z6param9mmmmmmmmm:
.LFB1941:
	.cfi_startproc
	ldr	x8, [sp]
	add	x5, x5, x6
	add	x3, x3, x4
	add	x1, x1, x2
	add	x7, x7, x8
	add	x7, x7, x5
	add	x7, x7, x3
	add	x7, x7, x1
	add	x0, x7, x0
	ret
	.cfi_endproc
.LFE1941:
	.size	_Z6param9mmmmmmmmm, .-_Z6param9mmmmmmmmm
	.align	2
	.p2align 4,,11
	.global	_Z5paramimldfPiPKiRi
	.type	_Z5paramimldfPiPKiRi, %function
_Z5paramimldfPiPKiRi:
.LFB1942:
	.cfi_startproc
	add	x2, x2, x1
	fcvt	d1, s1
	add	x0, x2, x0, sxtw
	ldr	w2, [x3]
	ldr	w1, [x4]
	ucvtf	d2, x0
	ldr	w0, [x5]
	scvtf	d4, w2
	scvtf	d3, w1
	fadd	d2, d2, d0
	scvtf	d0, w0
	fadd	d2, d2, d1
	fadd	d2, d2, d4
	fadd	d2, d2, d3
	fadd	d0, d2, d0
	ret
	.cfi_endproc
.LFE1942:
	.size	_Z5paramimldfPiPKiRi, .-_Z5paramimldfPiPKiRi
	.section	.text.startup,"ax",@progbits
	.align	2
	.p2align 4,,11
	.global	main
	.type	main, %function
main:
.LFB1943:
	.cfi_startproc
	stp	x29, x30, [sp, -16]!
	.cfi_def_cfa_offset 16
	.cfi_offset 29, -16
	.cfi_offset 30, -8
	mov	x29, sp
	bl	_Z9testvec3dv
	mov	w0, 0
	ldp	x29, x30, [sp], 16
	.cfi_restore 30
	.cfi_restore 29
	.cfi_def_cfa_offset 0
	ret
	.cfi_endproc
.LFE1943:
	.size	main, .-main
	.align	2
	.p2align 4,,11
	.type	_GLOBAL__sub_I__Z4f1_1ii, %function
_GLOBAL__sub_I__Z4f1_1ii:
.LFB2442:
	.cfi_startproc
	stp	x29, x30, [sp, -32]!
	.cfi_def_cfa_offset 32
	.cfi_offset 29, -32
	.cfi_offset 30, -24
	mov	x29, sp
	str	x19, [sp, 16]
	.cfi_offset 19, -16
	adrp	x19, .LANCHOR1
	add	x19, x19, :lo12:.LANCHOR1
	mov	x0, x19
	bl	_ZNSt8ios_base4InitC1Ev
	mov	x1, x19
	adrp	x0, :got:_ZNSt8ios_base4InitD1Ev
	ldr	x19, [sp, 16]
	adrp	x2, __dso_handle
	ldp	x29, x30, [sp], 32
	.cfi_restore 30
	.cfi_restore 29
	.cfi_restore 19
	.cfi_def_cfa_offset 0
	add	x2, x2, :lo12:__dso_handle
	ldr	x0, [x0, #:got_lo12:_ZNSt8ios_base4InitD1Ev]
	b	__cxa_atexit
	.cfi_endproc
.LFE2442:
	.size	_GLOBAL__sub_I__Z4f1_1ii, .-_GLOBAL__sub_I__Z4f1_1ii
	.section	.init_array,"aw"
	.align	3
	.xword	_GLOBAL__sub_I__Z4f1_1ii
	.section	.rodata
	.align	3
	.set	.LANCHOR0,. + 0
	.type	CSWTCH.118, %object
	.size	CSWTCH.118, 16
CSWTCH.118:
	.word	5
	.word	3
	.word	6
	.word	17
	.bss
	.align	3
	.set	.LANCHOR1,. + 0
	.type	_ZStL8__ioinit, %object
	.size	_ZStL8__ioinit, 1
_ZStL8__ioinit:
	.zero	1
	.hidden	__dso_handle
	.ident	"GCC: (Debian 10.2.1-6) 10.2.1 20210110"
	.section	.note.GNU-stack,"",@progbits
