	.file	"hypot.cc"
	.text
.Ltext0:
	.cfi_sections	.debug_frame
	.p2align 4,,15
	.globl	hypot
	.def	hypot;	.scl	2;	.type	32;	.endef
	.seh_proc	hypot
hypot:
.LFB246:
	.file 1 "hypot.cc"
	.loc 1 4 0
	.cfi_startproc
.LVL0:
	subq	$56, %rsp
	.seh_stackalloc	56
	.cfi_def_cfa_offset 64
	movaps	%xmm6, 32(%rsp)
	.seh_savexmm	%xmm6, 32
	.cfi_offset 23, -32
	.seh_endprologue
	.loc 1 5 0
	mulsd	%xmm1, %xmm1
.LVL1:
	mulsd	%xmm0, %xmm0
.LVL2:
	addsd	%xmm1, %xmm0
	pxor	%xmm1, %xmm1
	ucomisd	%xmm0, %xmm1
	sqrtsd	%xmm0, %xmm6
	jbe	.L1
	call	sqrt
.LVL3:
.L1:
	.loc 1 6 0
	movapd	%xmm6, %xmm0
	movaps	32(%rsp), %xmm6
	addq	$56, %rsp
	.cfi_restore 23
	.cfi_def_cfa_offset 8
	ret
	.cfi_endproc
.LFE246:
	.seh_endproc
.Letext0:
	.file 2 "D:/msys64/mingw64/include/c++/6.2.0/cmath"
	.file 3 "<built-in>"
	.file 4 "D:/msys64/mingw64/include/c++/6.2.0/x86_64-w64-mingw32/bits/c++config.h"
	.file 5 "D:/msys64/mingw64/x86_64-w64-mingw32/include/math.h"