	.file	"hw1.cc"
	.text
.Ltext0:
	.cfi_sections	.debug_frame
	.p2align 4,,15
	.def	__tcf_0;	.scl	3;	.type	32;	.endef
	.seh_proc	__tcf_0
__tcf_0:
.LFB1757:
	.file 1 "D:/msys64/mingw64/include/c++/6.2.0/iostream"
	.loc 1 74 0
	.cfi_startproc
	.seh_endprologue
	.loc 1 74 0
	leaq	_ZStL8__ioinit(%rip), %rcx
	jmp	_ZNSt8ios_base4InitD1Ev
.LVL0:
	.cfi_endproc
.LFE1757:
	.seh_endproc
	.def	__main;	.scl	2;	.type	32;	.endef
	.section	.text.startup,"x"
	.p2align 4,,15
	.globl	main
	.def	main;	.scl	2;	.type	32;	.endef
	.seh_proc	main
main:
.LFB1476:
	.file 2 "hw1.cc"
	.loc 2 6 0
	.cfi_startproc
	subq	$56, %rsp
	.seh_stackalloc	56
	.cfi_def_cfa_offset 64
	.seh_endprologue
	.loc 2 6 0
	call	__main
.LVL1:
	.loc 2 7 0
	movl	$3, %edx
	movl	$2, %ecx
	call	_Z3addii
.LVL2:
	movq	.refptr._ZSt4cout(%rip), %rcx
	movl	%eax, %edx
	call	_ZNSolsEi
.LVL3:
.LBB6:
.LBB7:
	.file 3 "D:/msys64/mingw64/include/c++/6.2.0/ostream"
	.loc 3 509 0
	leaq	47(%rsp), %rdx
	movl	$1, %r8d
	movq	%rax, %rcx
	movb	$10, 47(%rsp)
.LVL4:
	call	_ZSt16__ostream_insertIcSt11char_traitsIcEERSt13basic_ostreamIT_T0_ES6_PKS3_x
.LVL5:
.LBE7:
.LBE6:
	.loc 2 8 0
	xorl	%eax, %eax
	addq	$56, %rsp
	.cfi_def_cfa_offset 8
	ret
	.cfi_endproc
.LFE1476:
	.seh_endproc
	.p2align 4,,15
	.def	_GLOBAL__sub_I_main;	.scl	3;	.type	32;	.endef
	.seh_proc	_GLOBAL__sub_I_main
_GLOBAL__sub_I_main:
.LFB1758:
	.loc 2 8 0
	.cfi_startproc
	subq	$40, %rsp
	.seh_stackalloc	40
	.cfi_def_cfa_offset 48
	.seh_endprologue
.LVL6:
.LBB8:
.LBB9:
	.loc 1 74 0
	leaq	_ZStL8__ioinit(%rip), %rcx
	call	_ZNSt8ios_base4InitC1Ev
.LVL7:
	leaq	__tcf_0(%rip), %rcx
.LBE9:
.LBE8:
	.loc 2 8 0
	addq	$40, %rsp
	.cfi_def_cfa_offset 8
.LBB11:
.LBB10:
	.loc 1 74 0
	jmp	atexit
.LVL8:
.LBE10:
.LBE11:
	.cfi_endproc
.LFE1758:
	.seh_endproc
	.section	.ctors,"w"
	.align 8
	.quad	_GLOBAL__sub_I_main
.lcomm _ZStL8__ioinit,1,1
	.text
.Letext0:
	.file 4 "D:/msys64/mingw64/include/c++/6.2.0/cwchar"
	.file 5 "<built-in>"
	.file 6 "D:/msys64/mingw64/include/c++/6.2.0/bits/exception_ptr.h"
	.file 7 "D:/msys64/mingw64/include/c++/6.2.0/type_traits"
	.file 8 "D:/msys64/mingw64/include/c++/6.2.0/x86_64-w64-mingw32/bits/c++config.h"
	.file 9 "D:/msys64/mingw64/include/c++/6.2.0/debug/debug.h"
	.file 10 "D:/msys64/mingw64/include/c++/6.2.0/bits/char_traits.h"
	.file 11 "D:/msys64/mingw64/include/c++/6.2.0/bits/stl_pair.h"
	.file 12 "D:/msys64/mingw64/include/c++/6.2.0/cstdint"
	.file 13 "D:/msys64/mingw64/include/c++/6.2.0/clocale"
	.file 14 "D:/msys64/mingw64/include/c++/6.2.0/new"
	.file 15 "D:/msys64/mingw64/include/c++/6.2.0/cstdlib"
	.file 16 "D:/msys64/mingw64/include/c++/6.2.0/cstdio"
	.file 17 "D:/msys64/mingw64/include/c++/6.2.0/system_error"
	.file 18 "D:/msys64/mingw64/include/c++/6.2.0/bits/ios_base.h"
	.file 19 "D:/msys64/mingw64/include/c++/6.2.0/cwctype"
	.file 20 "D:/msys64/mingw64/include/c++/6.2.0/iosfwd"
	.file 21 "D:/msys64/mingw64/include/c++/6.2.0/bits/ostream.tcc"
	.file 22 "D:/msys64/mingw64/include/c++/6.2.0/bits/ostream_insert.h"
	.file 23 "D:/msys64/mingw64/include/c++/6.2.0/bits/predefined_ops.h"
	.file 24 "D:/msys64/mingw64/include/c++/6.2.0/ext/new_allocator.h"
	.file 25 "D:/msys64/mingw64/include/c++/6.2.0/ext/numeric_traits.h"
	.file 26 "D:/msys64/mingw64/x86_64-w64-mingw32/include/crtdefs.h"
	.file 27 "D:/msys64/mingw64/x86_64-w64-mingw32/include/locale.h"
	.file 28 "D:/msys64/mingw64/x86_64-w64-mingw32/include/wchar.h"
	.file 29 "D:/msys64/mingw64/x86_64-w64-mingw32/include/swprintf.inl"
	.file 30 "D:/msys64/mingw64/x86_64-w64-mingw32/include/stdint.h"
	.file 31 "D:/msys64/mingw64/x86_64-w64-mingw32/include/stdio.h"
	.file 32 "D:/msys64/mingw64/x86_64-w64-mingw32/include/ctype.h"
	.file 33 "D:/msys64/mingw64/x86_64-w64-mingw32/include/process.h"
	.file 34 "D:/msys64/mingw64/x86_64-w64-mingw32/include/pthread.h"
	.file 35 "D:/msys64/mingw64/include/c++/6.2.0/x86_64-w64-mingw32/bits/atomic_word.h"
	.file 36 "D:/msys64/mingw64/x86_64-w64-mingw32/include/stdlib.h"
	.file 37 "D:/msys64/mingw64/x86_64-w64-mingw32/include/malloc.h"
	.file 38 "D:/msys64/mingw64/x86_64-w64-mingw32/include/wctype.h"
	.section	.rdata$.refptr._ZSt4cout, "dr"
	.globl	.refptr._ZSt4cout
	.linkonce	discard
.refptr._ZSt4cout:
	.quad	_ZSt4cout
