	.arch armv6
	.eabi_attribute 28, 1
	.eabi_attribute 20, 1
	.eabi_attribute 21, 1
	.eabi_attribute 23, 3
	.eabi_attribute 24, 1
	.eabi_attribute 25, 1
	.eabi_attribute 26, 2
	.eabi_attribute 30, 2
	.eabi_attribute 34, 1
	.eabi_attribute 18, 4
	.file	"main.cc"
	.text
.Ltext0:
	.cfi_sections	.debug_frame
	.section	.text.startup,"ax",%progbits
	.align	2
	.global	main
	.syntax unified
	.arm
	.fpu vfp
	.type	main, %function
main:
	.fnstart
.LFB1479:
	.file 1 "main.cc"
	.loc 1 5 0
	.cfi_startproc
	@ args = 0, pretend = 0, frame = 0
	@ frame_needed = 0, uses_anonymous_args = 0
	push	{r4, lr}
	.save {r4, lr}
	.cfi_def_cfa_offset 8
	.cfi_offset 4, -8
	.cfi_offset 14, -4
	.loc 1 6 0
	mov	r1, #2
	mov	r0, #1
	bl	_Z1dii
.LVL0:
	.loc 1 8 0
	mov	r0, #0
	pop	{r4, pc}
	.cfi_endproc
.LFE1479:
	.fnend
	.size	main, .-main
	.align	2
	.syntax unified
	.arm
	.fpu vfp
	.type	_GLOBAL__sub_I_main, %function
_GLOBAL__sub_I_main:
	.fnstart
.LFB1916:
	.loc 1 8 0
	.cfi_startproc
	@ args = 0, pretend = 0, frame = 0
	@ frame_needed = 0, uses_anonymous_args = 0
.LVL1:
	push	{r4, lr}
	.cfi_def_cfa_offset 8
	.cfi_offset 4, -8
	.cfi_offset 14, -4
.LBB4:
.LBB5:
	.file 2 "/usr/include/c++/6/iostream"
	.loc 2 74 0
	ldr	r4, .L5
	mov	r0, r4
	bl	_ZNSt8ios_base4InitC1Ev
.LVL2:
	mov	r0, r4
	ldr	r2, .L5+4
	ldr	r1, .L5+8
.LBE5:
.LBE4:
	.loc 1 8 0
	pop	{r4, lr}
	.cfi_restore 14
	.cfi_restore 4
	.cfi_def_cfa_offset 0
.LBB7:
.LBB6:
	.loc 2 74 0
	b	__aeabi_atexit
.LVL3:
.L6:
	.align	2
.L5:
	.word	.LANCHOR0
	.word	__dso_handle
	.word	_ZNSt8ios_base4InitD1Ev
.LBE6:
.LBE7:
	.cfi_endproc
.LFE1916:
	.cantunwind
	.fnend
	.size	_GLOBAL__sub_I_main, .-_GLOBAL__sub_I_main
	.section	.init_array,"aw"
	.align	2
	.word	_GLOBAL__sub_I_main
	.bss
	.align	2
	.set	.LANCHOR0,. + 0
	.type	_ZStL8__ioinit, %object
	.size	_ZStL8__ioinit, 1
_ZStL8__ioinit:
	.space	1
	.text
.Letext0:
	.file 3 "/usr/include/c++/6/cwchar"
	.file 4 "/usr/include/c++/6/bits/exception_ptr.h"
	.file 5 "/usr/include/arm-linux-gnueabihf/c++/6/bits/c++config.h"
	.file 6 "/usr/include/c++/6/type_traits"
	.file 7 "/usr/include/c++/6/bits/stl_pair.h"
	.file 8 "/usr/include/c++/6/debug/debug.h"
	.file 9 "/usr/include/c++/6/bits/char_traits.h"
	.file 10 "/usr/include/c++/6/cstdint"
	.file 11 "/usr/include/c++/6/clocale"
	.file 12 "/usr/include/c++/6/new"
	.file 13 "/usr/include/c++/6/cstdlib"
	.file 14 "/usr/include/c++/6/cstdio"
	.file 15 "/usr/include/c++/6/bits/basic_string.h"
	.file 16 "/usr/include/c++/6/system_error"
	.file 17 "/usr/include/c++/6/bits/ios_base.h"
	.file 18 "/usr/include/c++/6/cwctype"
	.file 19 "/usr/include/c++/6/iosfwd"
	.file 20 "/usr/include/c++/6/bits/predefined_ops.h"
	.file 21 "/usr/include/c++/6/ext/new_allocator.h"
	.file 22 "/usr/include/c++/6/ext/numeric_traits.h"
	.file 23 "/usr/include/stdio.h"
	.file 24 "/usr/include/libio.h"
	.file 25 "/usr/lib/gcc/arm-linux-gnueabihf/6/include/stdarg.h"
	.file 26 "<built-in>"
	.file 27 "/usr/lib/gcc/arm-linux-gnueabihf/6/include/stddef.h"
	.file 28 "/usr/include/wchar.h"
	.file 29 "/usr/include/time.h"
	.file 30 "/usr/include/stdint.h"
	.file 31 "/usr/include/locale.h"
	.file 32 "/usr/include/arm-linux-gnueabihf/bits/types.h"
	.file 33 "/usr/include/arm-linux-gnueabihf/c++/6/bits/atomic_word.h"
	.file 34 "/usr/include/stdlib.h"
	.file 35 "/usr/include/arm-linux-gnueabihf/bits/stdlib-float.h"
	.file 36 "/usr/include/arm-linux-gnueabihf/bits/stdlib-bsearch.h"
	.file 37 "/usr/include/_G_config.h"
	.file 38 "/usr/include/arm-linux-gnueabihf/bits/sys_errlist.h"
	.file 39 "/usr/include/arm-linux-gnueabihf/bits/stdio.h"
	.file 40 "/usr/include/errno.h"
	.file 41 "/usr/include/wctype.h"
	.section	.note.GNU-stack,"",%progbits
