	.arch armv8-a
	.file	"01passparameters.cc"
	.text
	.section	.text.startup,"ax",@progbits
	.align	2
	.p2align 4,,11
	.global	main
	.type	main, %function
main:
.LFB1592:
	.cfi_startproc
	stp	x29, x30, [sp, -64]!
	.cfi_def_cfa_offset 64
	.cfi_offset 29, -64
	.cfi_offset 30, -56
	mov	w3, 4
	mov	w2, 3
	mov	x29, sp
	stp	x19, x20, [sp, 16]
	.cfi_offset 19, -48
	.cfi_offset 20, -40
	adrp	x20, :got:_ZSt4cout
	mov	w1, 2
	mov	w0, 1
	str	x21, [sp, 32]
	.cfi_offset 21, -32
	bl	_Z3addiiii
	add	x19, sp, 63
	ldr	x20, [x20, #:got_lo12:_ZSt4cout]
	mov	w1, w0
	mov	w21, 10
	mov	x0, x20
	bl	_ZNSolsEi
	mov	x1, x19
	mov	x2, 1
	strb	w21, [sp, 63]
	bl	_ZSt16__ostream_insertIcSt11char_traitsIcEERSt13basic_ostreamIT_T0_ES6_PKS3_l
	mov	x3, 2
	mov	x2, 5
	mov	x1, x3
	mov	x0, 3
	bl	_Z6dividemmmm
	mov	x1, x0
	mov	x0, x20
	bl	_ZNSo9_M_insertImEERSoT_
	mov	x1, x19
	mov	x2, 1
	strb	w21, [sp, 63]
	bl	_ZSt16__ostream_insertIcSt11char_traitsIcEERSt13basic_ostreamIT_T0_ES6_PKS3_l
	mov	w0, 0
	ldp	x19, x20, [sp, 16]
	ldr	x21, [sp, 32]
	ldp	x29, x30, [sp], 64
	.cfi_restore 30
	.cfi_restore 29
	.cfi_restore 21
	.cfi_restore 19
	.cfi_restore 20
	.cfi_def_cfa_offset 0
	ret
	.cfi_endproc
.LFE1592:
	.size	main, .-main
	.align	2
	.p2align 4,,11
	.type	_GLOBAL__sub_I_main, %function
_GLOBAL__sub_I_main:
.LFB2087:
	.cfi_startproc
	stp	x29, x30, [sp, -32]!
	.cfi_def_cfa_offset 32
	.cfi_offset 29, -32
	.cfi_offset 30, -24
	mov	x29, sp
	str	x19, [sp, 16]
	.cfi_offset 19, -16
	adrp	x19, .LANCHOR0
	add	x19, x19, :lo12:.LANCHOR0
	mov	x0, x19
	bl	_ZNSt8ios_base4InitC1Ev
	mov	x1, x19
	adrp	x0, :got:_ZNSt8ios_base4InitD1Ev
	ldr	x19, [sp, 16]
	adrp	x2, __dso_handle
	ldp	x29, x30, [sp], 32
	.cfi_restore 30
	.cfi_restore 29
	.cfi_restore 19
	.cfi_def_cfa_offset 0
	add	x2, x2, :lo12:__dso_handle
	ldr	x0, [x0, #:got_lo12:_ZNSt8ios_base4InitD1Ev]
	b	__cxa_atexit
	.cfi_endproc
.LFE2087:
	.size	_GLOBAL__sub_I_main, .-_GLOBAL__sub_I_main
	.section	.init_array,"aw"
	.align	3
	.xword	_GLOBAL__sub_I_main
	.bss
	.align	3
	.set	.LANCHOR0,. + 0
	.type	_ZStL8__ioinit, %object
	.size	_ZStL8__ioinit, 1
_ZStL8__ioinit:
	.zero	1
	.hidden	__dso_handle
	.ident	"GCC: (Debian 10.2.1-6) 10.2.1 20210110"
	.section	.note.GNU-stack,"",@progbits
