	.arch armv6
	.eabi_attribute 28, 1
	.eabi_attribute 20, 1
	.eabi_attribute 21, 1
	.eabi_attribute 23, 3
	.eabi_attribute 24, 1
	.eabi_attribute 25, 1
	.eabi_attribute 26, 2
	.eabi_attribute 30, 2
	.eabi_attribute 34, 1
	.eabi_attribute 18, 4
	.file	"Fraction.cc"
	.text
.Ltext0:
	.cfi_sections	.debug_frame
	.section	.text.startup,"ax",%progbits
	.align	2
	.global	main
	.syntax unified
	.arm
	.fpu vfp
	.type	main, %function
main:
	.fnstart
.LFB1483:
	.file 1 "Fraction.cc"
	.loc 1 16 0
	.cfi_startproc
	@ args = 0, pretend = 0, frame = 32
	@ frame_needed = 0, uses_anonymous_args = 0
	push	{r4, lr}
	.save {r4, lr}
	.cfi_def_cfa_offset 8
	.cfi_offset 4, -8
	.cfi_offset 14, -4
	.pad #40
	sub	sp, sp, #40
	.cfi_def_cfa_offset 48
.LVL0:
	.loc 1 19 0
	add	r2, sp, #16
.LVL1:
.LBB26:
.LBB27:
.LBB28:
	.loc 1 8 0
	mov	r4, #1
	mov	r3, #2
.LBE28:
.LBE27:
.LBE26:
.LBB31:
.LBB32:
.LBB33:
	mov	r0, #3
.LBE33:
.LBE32:
.LBE31:
.LBB34:
.LBB30:
.LBB29:
	str	r3, [sp, #20]
.LVL2:
	str	r4, [sp, #16]
.LBE29:
.LBE30:
.LBE34:
	.loc 1 19 0
	mov	r3, r4
	ldm	r2, {r1, r2}
	str	r0, [sp]
	add	r0, sp, #32
	bl	_Z3add8FractionS_
.LVL3:
.LBB35:
.LBB36:
	.loc 1 10 0
	ldr	r1, [sp, #32]
	ldr	r0, .L3
	bl	_ZNSolsEi
.LVL4:
	add	r1, sp, #40
	mov	r3, #47
	strb	r3, [r1, #-25]!
.LVL5:
.LBB37:
.LBB38:
	.file 2 "/usr/include/c++/6/ostream"
	.loc 2 509 0
	mov	r2, r4
	bl	_ZSt16__ostream_insertIcSt11char_traitsIcEERSt13basic_ostreamIT_T0_ES6_PKS3_i
.LVL6:
.LBE38:
.LBE37:
	.loc 1 10 0
	ldr	r1, [sp, #36]
	bl	_ZNSolsEi
.LVL7:
	add	r1, sp, #40
	mov	r3, #10
.LBE36:
.LBE35:
.LBB39:
.LBB40:
	.loc 2 509 0
	mov	r2, r4
	strb	r3, [r1, #-26]!
.LVL8:
	bl	_ZSt16__ostream_insertIcSt11char_traitsIcEERSt13basic_ostreamIT_T0_ES6_PKS3_i
.LVL9:
.LBE40:
.LBE39:
	.loc 1 21 0
	mov	r0, #0
	add	sp, sp, #40
	.cfi_def_cfa_offset 8
	@ sp needed
	pop	{r4, pc}
.L4:
	.align	2
.L3:
	.word	_ZSt4cout
	.cfi_endproc
.LFE1483:
	.fnend
	.size	main, .-main
	.align	2
	.syntax unified
	.arm
	.fpu vfp
	.type	_GLOBAL__sub_I_main, %function
_GLOBAL__sub_I_main:
	.fnstart
.LFB1921:
	.loc 1 21 0
	.cfi_startproc
	@ args = 0, pretend = 0, frame = 0
	@ frame_needed = 0, uses_anonymous_args = 0
.LVL10:
	push	{r4, lr}
	.cfi_def_cfa_offset 8
	.cfi_offset 4, -8
	.cfi_offset 14, -4
.LBB41:
.LBB42:
	.file 3 "/usr/include/c++/6/iostream"
	.loc 3 74 0
	ldr	r4, .L7
	mov	r0, r4
	bl	_ZNSt8ios_base4InitC1Ev
.LVL11:
	mov	r0, r4
	ldr	r2, .L7+4
	ldr	r1, .L7+8
.LBE42:
.LBE41:
	.loc 1 21 0
	pop	{r4, lr}
	.cfi_restore 14
	.cfi_restore 4
	.cfi_def_cfa_offset 0
.LBB44:
.LBB43:
	.loc 3 74 0
	b	__aeabi_atexit
.LVL12:
.L8:
	.align	2
.L7:
	.word	.LANCHOR0
	.word	__dso_handle
	.word	_ZNSt8ios_base4InitD1Ev
.LBE43:
.LBE44:
	.cfi_endproc
.LFE1921:
	.cantunwind
	.fnend
	.size	_GLOBAL__sub_I_main, .-_GLOBAL__sub_I_main
	.section	.init_array,"aw"
	.align	2
	.word	_GLOBAL__sub_I_main
	.bss
	.align	2
	.set	.LANCHOR0,. + 0
	.type	_ZStL8__ioinit, %object
	.size	_ZStL8__ioinit, 1
_ZStL8__ioinit:
	.space	1
	.text
.Letext0:
	.file 4 "/usr/include/c++/6/cwchar"
	.file 5 "/usr/include/c++/6/bits/exception_ptr.h"
	.file 6 "/usr/include/arm-linux-gnueabihf/c++/6/bits/c++config.h"
	.file 7 "/usr/include/c++/6/type_traits"
	.file 8 "/usr/include/c++/6/bits/stl_pair.h"
	.file 9 "/usr/include/c++/6/debug/debug.h"
	.file 10 "/usr/include/c++/6/bits/char_traits.h"
	.file 11 "/usr/include/c++/6/cstdint"
	.file 12 "/usr/include/c++/6/clocale"
	.file 13 "/usr/include/c++/6/new"
	.file 14 "/usr/include/c++/6/cstdlib"
	.file 15 "/usr/include/c++/6/cstdio"
	.file 16 "/usr/include/c++/6/bits/basic_string.h"
	.file 17 "/usr/include/c++/6/system_error"
	.file 18 "/usr/include/c++/6/bits/ios_base.h"
	.file 19 "/usr/include/c++/6/cwctype"
	.file 20 "/usr/include/c++/6/iosfwd"
	.file 21 "/usr/include/c++/6/bits/ostream.tcc"
	.file 22 "/usr/include/c++/6/bits/ostream_insert.h"
	.file 23 "/usr/include/c++/6/bits/predefined_ops.h"
	.file 24 "/usr/include/c++/6/ext/new_allocator.h"
	.file 25 "/usr/include/c++/6/ext/numeric_traits.h"
	.file 26 "/usr/include/stdio.h"
	.file 27 "/usr/include/libio.h"
	.file 28 "/usr/lib/gcc/arm-linux-gnueabihf/6/include/stdarg.h"
	.file 29 "<built-in>"
	.file 30 "/usr/lib/gcc/arm-linux-gnueabihf/6/include/stddef.h"
	.file 31 "/usr/include/wchar.h"
	.file 32 "/usr/include/time.h"
	.file 33 "/usr/include/stdint.h"
	.file 34 "/usr/include/locale.h"
	.file 35 "/usr/include/arm-linux-gnueabihf/bits/types.h"
	.file 36 "/usr/include/arm-linux-gnueabihf/c++/6/bits/atomic_word.h"
	.file 37 "/usr/include/stdlib.h"
	.file 38 "/usr/include/arm-linux-gnueabihf/bits/stdlib-float.h"
	.file 39 "/usr/include/arm-linux-gnueabihf/bits/stdlib-bsearch.h"
	.file 40 "/usr/include/_G_config.h"
	.file 41 "/usr/include/arm-linux-gnueabihf/bits/sys_errlist.h"
	.file 42 "/usr/include/arm-linux-gnueabihf/bits/stdio.h"
	.file 43 "/usr/include/errno.h"
	.file 44 "/usr/include/wctype.h"
	.section	.note.GNU-stack,"",%progbits
