	.file	"calls.cc"
	.text
.Ltext0:
	.cfi_sections	.debug_frame
	.p2align 4,,15
	.def	__tcf_0;	.scl	3;	.type	32;	.endef
	.seh_proc	__tcf_0
__tcf_0:
.LFB1986:
	.file 1 "D:/msys64/mingw64/include/c++/6.2.0/iostream"
	.loc 1 74 0
	.cfi_startproc
	.seh_endprologue
	.loc 1 74 0
	leaq	_ZStL8__ioinit(%rip), %rcx
	jmp	_ZNSt8ios_base4InitD1Ev
.LVL0:
	.cfi_endproc
.LFE1986:
	.seh_endproc
	.p2align 4,,15
	.globl	_Z3f01v
	.def	_Z3f01v;	.scl	2;	.type	32;	.endef
	.seh_proc	_Z3f01v
_Z3f01v:
.LFB1528:
	.file 2 "calls.cc"
	.loc 2 6 0
	.cfi_startproc
	.seh_endprologue
	.loc 2 6 0
	xorl	%eax, %eax
	ret
	.cfi_endproc
.LFE1528:
	.seh_endproc
	.p2align 4,,15
	.globl	_Z3f02i
	.def	_Z3f02i;	.scl	2;	.type	32;	.endef
	.seh_proc	_Z3f02i
_Z3f02i:
.LFB1529:
	.loc 2 7 0
	.cfi_startproc
.LVL1:
	.seh_endprologue
	.loc 2 7 0
	movl	%ecx, %eax
	ret
	.cfi_endproc
.LFE1529:
	.seh_endproc
	.p2align 4,,15
	.globl	_Z3f03ii
	.def	_Z3f03ii;	.scl	2;	.type	32;	.endef
	.seh_proc	_Z3f03ii
_Z3f03ii:
.LFB1530:
	.loc 2 8 0
	.cfi_startproc
.LVL2:
	.seh_endprologue
	.loc 2 8 0
	leal	(%rcx,%rdx), %eax
	ret
	.cfi_endproc
.LFE1530:
	.seh_endproc
	.p2align 4,,15
	.globl	_Z3f11j
	.def	_Z3f11j;	.scl	2;	.type	32;	.endef
	.seh_proc	_Z3f11j
_Z3f11j:
.LFB1531:
	.loc 2 10 0
	.cfi_startproc
.LVL3:
	.seh_endprologue
	.loc 2 10 0
	movl	%ecx, %eax
	ret
	.cfi_endproc
.LFE1531:
	.seh_endproc
	.p2align 4,,15
	.globl	_Z3f12jj
	.def	_Z3f12jj;	.scl	2;	.type	32;	.endef
	.seh_proc	_Z3f12jj
_Z3f12jj:
.LFB1532:
	.loc 2 11 0
	.cfi_startproc
.LVL4:
	.seh_endprologue
	.loc 2 11 0
	leal	(%rcx,%rdx), %eax
	ret
	.cfi_endproc
.LFE1532:
	.seh_endproc
	.p2align 4,,15
	.globl	_Z3f13y
	.def	_Z3f13y;	.scl	2;	.type	32;	.endef
	.seh_proc	_Z3f13y
_Z3f13y:
.LFB1533:
	.loc 2 12 0
	.cfi_startproc
.LVL5:
	.seh_endprologue
	.loc 2 12 0
	movq	%rcx, %rax
	ret
	.cfi_endproc
.LFE1533:
	.seh_endproc
	.p2align 4,,15
	.globl	_Z3f14yy
	.def	_Z3f14yy;	.scl	2;	.type	32;	.endef
	.seh_proc	_Z3f14yy
_Z3f14yy:
.LFB1534:
	.loc 2 13 0
	.cfi_startproc
.LVL6:
	.seh_endprologue
	.loc 2 13 0
	leaq	(%rcx,%rdx), %rax
	ret
	.cfi_endproc
.LFE1534:
	.seh_endproc
	.p2align 4,,15
	.globl	_Z3f21f
	.def	_Z3f21f;	.scl	2;	.type	32;	.endef
	.seh_proc	_Z3f21f
_Z3f21f:
.LFB1535:
	.loc 2 15 0
	.cfi_startproc
.LVL7:
	.seh_endprologue
	.loc 2 15 0
	ret
	.cfi_endproc
.LFE1535:
	.seh_endproc
	.p2align 4,,15
	.globl	_Z3f22d
	.def	_Z3f22d;	.scl	2;	.type	32;	.endef
	.seh_proc	_Z3f22d
_Z3f22d:
.LFB1536:
	.loc 2 16 0
	.cfi_startproc
.LVL8:
	.seh_endprologue
	.loc 2 16 0
	ret
	.cfi_endproc
.LFE1536:
	.seh_endproc
	.p2align 4,,15
	.globl	_Z3f23e
	.def	_Z3f23e;	.scl	2;	.type	32;	.endef
	.seh_proc	_Z3f23e
_Z3f23e:
.LFB1537:
	.loc 2 17 0
	.cfi_startproc
.LVL9:
	.seh_endprologue
	.loc 2 17 0
	fldt	(%rdx)
.LVL10:
	movq	%rcx, %rax
	fstpt	(%rcx)
	ret
	.cfi_endproc
.LFE1537:
	.seh_endproc
	.section .rdata,"dr"
.LC1:
	.ascii "in the constructor!\0"
	.text
	.align 2
	.p2align 4,,15
	.globl	_ZN1AC2Ei
	.def	_ZN1AC2Ei;	.scl	2;	.type	32;	.endef
	.seh_proc	_ZN1AC2Ei
_ZN1AC2Ei:
.LFB1539:
	.loc 2 23 0
	.cfi_startproc
.LVL11:
	subq	$40, %rsp
	.seh_stackalloc	40
	.cfi_def_cfa_offset 48
	.seh_endprologue
.LBB28:
.LBB29:
.LBB30:
	.file 3 "D:/msys64/mingw64/include/c++/6.2.0/ostream"
	.loc 3 561 0
	movl	$19, %r8d
.LBE30:
.LBE29:
	.loc 2 23 0
	movl	%edx, (%rcx)
.LVL12:
.LBB32:
.LBB31:
	.loc 3 561 0
	movq	.refptr._ZSt4cout(%rip), %rcx
.LVL13:
	leaq	.LC1(%rip), %rdx
.LVL14:
	call	_ZSt16__ostream_insertIcSt11char_traitsIcEERSt13basic_ostreamIT_T0_ES6_PKS3_x
.LVL15:
.LBE31:
.LBE32:
	.loc 2 25 0
	addl	$1, _ZN1A5countE(%rip)
.LBE28:
	.loc 2 26 0
	addq	$40, %rsp
	.cfi_def_cfa_offset 8
	ret
	.cfi_endproc
.LFE1539:
	.seh_endproc
	.globl	_ZN1AC1Ei
	.def	_ZN1AC1Ei;	.scl	2;	.type	32;	.endef
	.set	_ZN1AC1Ei,_ZN1AC2Ei
	.align 2
	.p2align 4,,15
	.globl	_ZNK1A3f31Ev
	.def	_ZNK1A3f31Ev;	.scl	2;	.type	32;	.endef
	.seh_proc	_ZNK1A3f31Ev
_ZNK1A3f31Ev:
.LFB1541:
	.loc 2 27 0
	.cfi_startproc
.LVL16:
	.seh_endprologue
	.loc 2 28 0
	movl	(%rcx), %edx
	movq	.refptr._ZSt4cout(%rip), %rcx
.LVL17:
	.loc 2 29 0
	.loc 2 28 0
	jmp	_ZNSolsEi
.LVL18:
	.cfi_endproc
.LFE1541:
	.seh_endproc
	.align 2
	.p2align 4,,15
	.globl	_ZN1A4f31bEv
	.def	_ZN1A4f31bEv;	.scl	2;	.type	32;	.endef
	.seh_proc	_ZN1A4f31bEv
_ZN1A4f31bEv:
.LFB1542:
	.loc 2 31 0
	.cfi_startproc
.LVL19:
	.seh_endprologue
	.loc 2 32 0
	addl	$1, (%rcx)
	ret
	.cfi_endproc
.LFE1542:
	.seh_endproc
	.align 2
	.p2align 4,,15
	.globl	_ZN1A3f32Ei
	.def	_ZN1A3f32Ei;	.scl	2;	.type	32;	.endef
	.seh_proc	_ZN1A3f32Ei
_ZN1A3f32Ei:
.LFB1543:
	.loc 2 36 0
	.cfi_startproc
.LVL20:
	.seh_endprologue
	.loc 2 37 0
	movl	%edx, (%rcx)
	.loc 2 38 0
	ret
	.cfi_endproc
.LFE1543:
	.seh_endproc
	.p2align 4,,15
	.globl	_Z3f33i
	.def	_Z3f33i;	.scl	2;	.type	32;	.endef
	.seh_proc	_Z3f33i
_Z3f33i:
.LFB1544:
	.loc 2 41 0
	.cfi_startproc
.LVL21:
	.seh_endprologue
	.loc 2 42 0
	leal	1(%rcx), %eax
	.loc 2 43 0
	ret
	.cfi_endproc
.LFE1544:
	.seh_endproc
	.align 2
	.p2align 4,,15
	.globl	_ZN1A3f34Ev
	.def	_ZN1A3f34Ev;	.scl	2;	.type	32;	.endef
	.seh_proc	_ZN1A3f34Ev
_ZN1A3f34Ev:
.LFB1545:
	.loc 2 45 0
	.cfi_startproc
	.seh_endprologue
	.loc 2 47 0
	movl	_ZN1A5countE(%rip), %eax
	ret
	.cfi_endproc
.LFE1545:
	.seh_endproc
	.p2align 4,,15
	.globl	_ZplRK1AS1_
	.def	_ZplRK1AS1_;	.scl	2;	.type	32;	.endef
	.seh_proc	_ZplRK1AS1_
_ZplRK1AS1_:
.LFB1546:
	.loc 2 49 0
	.cfi_startproc
.LVL22:
	pushq	%rbx
	.seh_pushreg	%rbx
	.cfi_def_cfa_offset 16
	.cfi_offset 3, -16
	subq	$32, %rsp
	.seh_stackalloc	32
	.cfi_def_cfa_offset 48
	.seh_endprologue
	.loc 2 50 0
	movl	(%rdx), %ebx
	addl	(%rcx), %ebx
.LVL23:
.LBB39:
.LBB40:
.LBB41:
.LBB42:
	.loc 3 561 0
	leaq	.LC1(%rip), %rdx
.LVL24:
	movq	.refptr._ZSt4cout(%rip), %rcx
.LVL25:
	movl	$19, %r8d
	call	_ZSt16__ostream_insertIcSt11char_traitsIcEERSt13basic_ostreamIT_T0_ES6_PKS3_x
.LVL26:
.LBE42:
.LBE41:
	.loc 2 25 0
	addl	$1, _ZN1A5countE(%rip)
.LVL27:
.LBE40:
.LBE39:
	.loc 2 51 0
	movl	%ebx, %eax
	addq	$32, %rsp
	.cfi_def_cfa_offset 16
	popq	%rbx
	.cfi_restore 3
	.cfi_def_cfa_offset 8
	ret
	.cfi_endproc
.LFE1546:
	.seh_endproc
	.section	.text.startup,"x"
	.p2align 4,,15
	.def	_GLOBAL__sub_I__Z3f01v;	.scl	3;	.type	32;	.endef
	.seh_proc	_GLOBAL__sub_I__Z3f01v
_GLOBAL__sub_I__Z3f01v:
.LFB1987:
	.loc 2 51 0
	.cfi_startproc
	subq	$40, %rsp
	.seh_stackalloc	40
	.cfi_def_cfa_offset 48
	.seh_endprologue
.LVL28:
.LBB43:
.LBB44:
	.loc 1 74 0
	leaq	_ZStL8__ioinit(%rip), %rcx
	call	_ZNSt8ios_base4InitC1Ev
.LVL29:
	leaq	__tcf_0(%rip), %rcx
.LBE44:
.LBE43:
	.loc 2 51 0
	addq	$40, %rsp
	.cfi_def_cfa_offset 8
.LBB46:
.LBB45:
	.loc 1 74 0
	jmp	atexit
.LVL30:
.LBE45:
.LBE46:
	.cfi_endproc
.LFE1987:
	.seh_endproc
	.section	.ctors,"w"
	.align 8
	.quad	_GLOBAL__sub_I__Z3f01v
	.globl	_ZN1A5countE
	.bss
	.align 4
_ZN1A5countE:
	.space 4
.lcomm _ZStL8__ioinit,1,1
	.text
.Letext0:
	.file 4 "D:/msys64/mingw64/include/c++/6.2.0/cstdint"
	.file 5 "D:/msys64/mingw64/include/c++/6.2.0/cwchar"
	.file 6 "<built-in>"
	.file 7 "D:/msys64/mingw64/include/c++/6.2.0/bits/exception_ptr.h"
	.file 8 "D:/msys64/mingw64/include/c++/6.2.0/type_traits"
	.file 9 "D:/msys64/mingw64/include/c++/6.2.0/x86_64-w64-mingw32/bits/c++config.h"
	.file 10 "D:/msys64/mingw64/include/c++/6.2.0/debug/debug.h"
	.file 11 "D:/msys64/mingw64/include/c++/6.2.0/bits/char_traits.h"
	.file 12 "D:/msys64/mingw64/include/c++/6.2.0/bits/stl_pair.h"
	.file 13 "D:/msys64/mingw64/include/c++/6.2.0/clocale"
	.file 14 "D:/msys64/mingw64/include/c++/6.2.0/new"
	.file 15 "D:/msys64/mingw64/include/c++/6.2.0/cstdlib"
	.file 16 "D:/msys64/mingw64/include/c++/6.2.0/cstdio"
	.file 17 "D:/msys64/mingw64/include/c++/6.2.0/bits/basic_string.h"
	.file 18 "D:/msys64/mingw64/include/c++/6.2.0/system_error"
	.file 19 "D:/msys64/mingw64/include/c++/6.2.0/bits/ios_base.h"
	.file 20 "D:/msys64/mingw64/include/c++/6.2.0/cwctype"
	.file 21 "D:/msys64/mingw64/include/c++/6.2.0/iosfwd"
	.file 22 "D:/msys64/mingw64/include/c++/6.2.0/bits/basic_ios.h"
	.file 23 "D:/msys64/mingw64/include/c++/6.2.0/bits/ostream.tcc"
	.file 24 "D:/msys64/mingw64/include/c++/6.2.0/bits/ostream_insert.h"
	.file 25 "D:/msys64/mingw64/include/c++/6.2.0/bits/predefined_ops.h"
	.file 26 "D:/msys64/mingw64/include/c++/6.2.0/ext/new_allocator.h"
	.file 27 "D:/msys64/mingw64/include/c++/6.2.0/ext/numeric_traits.h"
	.file 28 "D:/msys64/mingw64/x86_64-w64-mingw32/include/crtdefs.h"
	.file 29 "D:/msys64/mingw64/x86_64-w64-mingw32/include/locale.h"
	.file 30 "D:/msys64/mingw64/x86_64-w64-mingw32/include/stdint.h"
	.file 31 "D:/msys64/mingw64/x86_64-w64-mingw32/include/wchar.h"
	.file 32 "D:/msys64/mingw64/x86_64-w64-mingw32/include/swprintf.inl"
	.file 33 "D:/msys64/mingw64/x86_64-w64-mingw32/include/stdio.h"
	.file 34 "D:/msys64/mingw64/x86_64-w64-mingw32/include/ctype.h"
	.file 35 "D:/msys64/mingw64/x86_64-w64-mingw32/include/process.h"
	.file 36 "D:/msys64/mingw64/x86_64-w64-mingw32/include/pthread.h"
	.file 37 "D:/msys64/mingw64/include/c++/6.2.0/x86_64-w64-mingw32/bits/atomic_word.h"
	.file 38 "D:/msys64/mingw64/x86_64-w64-mingw32/include/stdlib.h"
	.file 39 "D:/msys64/mingw64/x86_64-w64-mingw32/include/malloc.h"
	.file 40 "D:/msys64/mingw64/x86_64-w64-mingw32/include/wctype.h"
	.file 41 "calls.hh"
	.section	.rdata$.refptr._ZSt4cout, "dr"
	.globl	.refptr._ZSt4cout
	.linkonce	discard
.refptr._ZSt4cout:
	.quad	_ZSt4cout
