	.file	"callingconventions.cc"
	.text
.Ltext0:
	.cfi_sections	.debug_frame
	.p2align 4,,15
	.def	__tcf_0;	.scl	3;	.type	32;	.endef
	.seh_proc	__tcf_0
__tcf_0:
.LFB1975:
	.file 1 "D:/msys64/mingw64/include/c++/6.2.0/iostream"
	.loc 1 74 0
	.cfi_startproc
	.seh_endprologue
	.loc 1 74 0
	leaq	_ZStL8__ioinit(%rip), %rcx
	jmp	_ZNSt8ios_base4InitD1Ev
.LVL0:
	.cfi_endproc
.LFE1975:
	.seh_endproc
	.p2align 4,,15
	.globl	_Z12testintegersv
	.def	_Z12testintegersv;	.scl	2;	.type	32;	.endef
	.seh_proc	_Z12testintegersv
_Z12testintegersv:
.LFB1528:
	.file 2 "callingconventions.cc"
	.loc 2 6 0
	.cfi_startproc
	subq	$56, %rsp
	.seh_stackalloc	56
	.cfi_def_cfa_offset 64
	.seh_endprologue
	.loc 2 7 0
	call	_Z3f01v
.LVL1:
	movq	.refptr._ZSt4cout(%rip), %rcx
	movl	%eax, %edx
	call	_ZNSolsEi
.LVL2:
.LBB44:
.LBB45:
	.file 3 "D:/msys64/mingw64/include/c++/6.2.0/ostream"
	.loc 3 509 0
	leaq	47(%rsp), %rdx
	movl	$1, %r8d
	movq	%rax, %rcx
	movb	$10, 47(%rsp)
.LVL3:
	call	_ZSt16__ostream_insertIcSt11char_traitsIcEERSt13basic_ostreamIT_T0_ES6_PKS3_x
.LVL4:
.LBE45:
.LBE44:
	.loc 2 8 0
	movl	$1, %ecx
	call	_Z3f02i
.LVL5:
	movq	.refptr._ZSt4cout(%rip), %rcx
	movl	%eax, %edx
	call	_ZNSolsEi
.LVL6:
.LBB46:
.LBB47:
	.loc 3 509 0
	leaq	46(%rsp), %rdx
	movl	$1, %r8d
	movq	%rax, %rcx
	movb	$10, 46(%rsp)
.LVL7:
	call	_ZSt16__ostream_insertIcSt11char_traitsIcEERSt13basic_ostreamIT_T0_ES6_PKS3_x
.LVL8:
.LBE47:
.LBE46:
	.loc 2 9 0
	movl	$2, %edx
	movl	$1, %ecx
	call	_Z3f03ii
.LVL9:
	movq	.refptr._ZSt4cout(%rip), %rcx
	movl	%eax, %edx
	call	_ZNSolsEi
.LVL10:
.LBB48:
.LBB49:
	.loc 3 509 0
	leaq	45(%rsp), %rdx
	movl	$1, %r8d
	movq	%rax, %rcx
	movb	$10, 45(%rsp)
.LVL11:
	call	_ZSt16__ostream_insertIcSt11char_traitsIcEERSt13basic_ostreamIT_T0_ES6_PKS3_x
	nop
.LVL12:
.LBE49:
.LBE48:
	.loc 2 10 0
	addq	$56, %rsp
	.cfi_def_cfa_offset 8
	ret
	.cfi_endproc
.LFE1528:
	.seh_endproc
	.p2align 4,,15
	.globl	_Z9testuintsv
	.def	_Z9testuintsv;	.scl	2;	.type	32;	.endef
	.seh_proc	_Z9testuintsv
_Z9testuintsv:
.LFB1529:
	.loc 2 12 0
	.cfi_startproc
	subq	$56, %rsp
	.seh_stackalloc	56
	.cfi_def_cfa_offset 64
	.seh_endprologue
.LVL13:
	.loc 2 15 0
	movl	$1, %ecx
	call	_Z3f11j
.LVL14:
.LBB50:
.LBB51:
	.loc 3 196 0
	movq	.refptr._ZSt4cout(%rip), %rcx
	movl	%eax, %edx
	call	_ZNSo9_M_insertImEERSoT_
.LVL15:
.LBE51:
.LBE50:
.LBB52:
.LBB53:
	.loc 3 509 0
	leaq	47(%rsp), %rdx
	movl	$1, %r8d
	movq	%rax, %rcx
	movb	$10, 47(%rsp)
.LVL16:
	call	_ZSt16__ostream_insertIcSt11char_traitsIcEERSt13basic_ostreamIT_T0_ES6_PKS3_x
.LVL17:
.LBE53:
.LBE52:
	.loc 2 16 0
	movl	$1, %edx
	movl	$1, %ecx
	call	_Z3f12jj
.LVL18:
.LBB54:
.LBB55:
	.loc 3 196 0
	movq	.refptr._ZSt4cout(%rip), %rcx
	movl	%eax, %edx
	call	_ZNSo9_M_insertImEERSoT_
.LVL19:
.LBE55:
.LBE54:
.LBB56:
.LBB57:
	.loc 3 509 0
	leaq	46(%rsp), %rdx
	movl	$1, %r8d
	movq	%rax, %rcx
	movb	$10, 46(%rsp)
.LVL20:
	call	_ZSt16__ostream_insertIcSt11char_traitsIcEERSt13basic_ostreamIT_T0_ES6_PKS3_x
.LVL21:
.LBE57:
.LBE56:
	.loc 2 17 0
	movl	$2, %ecx
	call	_Z3f13y
.LVL22:
.LBB58:
.LBB59:
	.loc 3 206 0
	movq	.refptr._ZSt4cout(%rip), %rcx
	movq	%rax, %rdx
	call	_ZNSo9_M_insertIyEERSoT_
.LVL23:
.LBE59:
.LBE58:
.LBB60:
.LBB61:
	.loc 3 509 0
	leaq	45(%rsp), %rdx
	movl	$1, %r8d
	movq	%rax, %rcx
	movb	$10, 45(%rsp)
.LVL24:
	call	_ZSt16__ostream_insertIcSt11char_traitsIcEERSt13basic_ostreamIT_T0_ES6_PKS3_x
.LVL25:
.LBE61:
.LBE60:
	.loc 2 18 0
	movl	$2, %edx
	movl	$2, %ecx
	call	_Z3f14yy
.LVL26:
.LBB62:
.LBB63:
	.loc 3 206 0
	movq	.refptr._ZSt4cout(%rip), %rcx
	movq	%rax, %rdx
	call	_ZNSo9_M_insertIyEERSoT_
.LVL27:
.LBE63:
.LBE62:
.LBB64:
.LBB65:
	.loc 3 509 0
	leaq	44(%rsp), %rdx
	movl	$1, %r8d
	movq	%rax, %rcx
	movb	$10, 44(%rsp)
.LVL28:
	call	_ZSt16__ostream_insertIcSt11char_traitsIcEERSt13basic_ostreamIT_T0_ES6_PKS3_x
	nop
.LVL29:
.LBE65:
.LBE64:
	.loc 2 19 0
	addq	$56, %rsp
	.cfi_def_cfa_offset 8
	ret
	.cfi_endproc
.LFE1529:
	.seh_endproc
	.p2align 4,,15
	.globl	_Z9testfloatv
	.def	_Z9testfloatv;	.scl	2;	.type	32;	.endef
	.seh_proc	_Z9testfloatv
_Z9testfloatv:
.LFB1530:
	.loc 2 21 0
	.cfi_startproc
	pushq	%rbx
	.seh_pushreg	%rbx
	.cfi_def_cfa_offset 16
	.cfi_offset 3, -16
	subq	$80, %rsp
	.seh_stackalloc	80
	.cfi_def_cfa_offset 96
	.seh_endprologue
.LVL30:
	.loc 2 25 0
	movss	.LC0(%rip), %xmm0
	call	_Z3f21f
.LVL31:
.LBB66:
.LBB67:
	.loc 3 228 0
	pxor	%xmm1, %xmm1
	movq	.refptr._ZSt4cout(%rip), %rcx
.LBE67:
.LBE66:
	.loc 2 27 0
	leaq	48(%rsp), %rbx
.LBB69:
.LBB68:
	.loc 3 228 0
	cvtss2sd	%xmm0, %xmm1
	call	_ZNSo9_M_insertIdEERSoT_
.LVL32:
.LBE68:
.LBE69:
.LBB70:
.LBB71:
	.loc 3 509 0
	leaq	79(%rsp), %rdx
	movl	$1, %r8d
	movq	%rax, %rcx
	movb	$10, 79(%rsp)
.LVL33:
	call	_ZSt16__ostream_insertIcSt11char_traitsIcEERSt13basic_ostreamIT_T0_ES6_PKS3_x
.LVL34:
.LBE71:
.LBE70:
	.loc 2 26 0
	movsd	.LC1(%rip), %xmm0
	call	_Z3f22d
.LVL35:
.LBB72:
.LBB73:
	.loc 3 221 0
	movq	.refptr._ZSt4cout(%rip), %rcx
.LBE73:
.LBE72:
	.loc 2 26 0
	movapd	%xmm0, %xmm1
.LVL36:
.LBB75:
.LBB74:
	.loc 3 221 0
	call	_ZNSo9_M_insertIdEERSoT_
.LVL37:
.LBE74:
.LBE75:
.LBB76:
.LBB77:
	.loc 3 509 0
	leaq	78(%rsp), %rdx
	movl	$1, %r8d
	movq	%rax, %rcx
	movb	$10, 78(%rsp)
.LVL38:
	call	_ZSt16__ostream_insertIcSt11char_traitsIcEERSt13basic_ostreamIT_T0_ES6_PKS3_x
.LVL39:
.LBE77:
.LBE76:
	.loc 2 27 0
	fld1
	leaq	32(%rsp), %rdx
	movq	%rbx, %rcx
	fstpt	32(%rsp)
	call	_Z3f23e
.LVL40:
.LBB78:
.LBB79:
	.loc 3 233 0
	movq	%rbx, %rdx
	movq	.refptr._ZSt4cout(%rip), %rcx
	call	_ZNSo9_M_insertIeEERSoT_
.LVL41:
.LBE79:
.LBE78:
.LBB80:
.LBB81:
	.loc 3 509 0
	leaq	77(%rsp), %rdx
	movl	$1, %r8d
	movq	%rax, %rcx
	movb	$10, 77(%rsp)
.LVL42:
	call	_ZSt16__ostream_insertIcSt11char_traitsIcEERSt13basic_ostreamIT_T0_ES6_PKS3_x
	nop
.LVL43:
.LBE81:
.LBE80:
	.loc 2 28 0
	addq	$80, %rsp
	.cfi_def_cfa_offset 16
	popq	%rbx
	.cfi_restore 3
	.cfi_def_cfa_offset 8
	ret
	.cfi_endproc
.LFE1530:
	.seh_endproc
	.p2align 4,,15
	.globl	_Z11testMethodsv
	.def	_Z11testMethodsv;	.scl	2;	.type	32;	.endef
	.seh_proc	_Z11testMethodsv
_Z11testMethodsv:
.LFB1531:
	.loc 2 30 0
	.cfi_startproc
	pushq	%rbx
	.seh_pushreg	%rbx
	.cfi_def_cfa_offset 16
	.cfi_offset 3, -16
	subq	$64, %rsp
	.seh_stackalloc	64
	.cfi_def_cfa_offset 80
	.seh_endprologue
	.loc 2 31 0
	movl	$3, %edx
	leaq	48(%rsp), %rbx
	movq	%rbx, %rcx
	call	_ZN1AC1Ei
.LVL44:
	.loc 2 32 0
	movq	%rbx, %rcx
	call	_ZNK1A3f31Ev
.LVL45:
	.loc 2 33 0
	movq	%rbx, %rcx
	call	_ZN1A4f31bEv
.LVL46:
	.loc 2 34 0
	movq	%rbx, %rcx
	movl	$3, %edx
	call	_ZN1A3f32Ei
.LVL47:
	movq	.refptr._ZSt4cout(%rip), %rcx
	movl	%eax, %edx
	call	_ZNSolsEi
.LVL48:
.LBB82:
.LBB83:
	.loc 3 509 0
	leaq	45(%rsp), %rdx
	movl	$1, %r8d
	movq	%rax, %rcx
	movb	$10, 45(%rsp)
.LVL49:
	call	_ZSt16__ostream_insertIcSt11char_traitsIcEERSt13basic_ostreamIT_T0_ES6_PKS3_x
.LVL50:
.LBE83:
.LBE82:
	.loc 2 35 0
	movl	$3, %ecx
	call	_Z3f33i
.LVL51:
	movq	.refptr._ZSt4cout(%rip), %rcx
	movl	%eax, %edx
	call	_ZNSolsEi
.LVL52:
.LBB84:
.LBB85:
	.loc 3 509 0
	leaq	46(%rsp), %rdx
	movl	$1, %r8d
	movq	%rax, %rcx
	movb	$10, 46(%rsp)
.LVL53:
	call	_ZSt16__ostream_insertIcSt11char_traitsIcEERSt13basic_ostreamIT_T0_ES6_PKS3_x
.LVL54:
.LBE85:
.LBE84:
	.loc 2 36 0
	call	_ZN1A3f34Ev
.LVL55:
	movq	.refptr._ZSt4cout(%rip), %rcx
	movl	%eax, %edx
	call	_ZNSolsEi
.LVL56:
.LBB86:
.LBB87:
	.loc 3 509 0
	leaq	47(%rsp), %rdx
	movl	$1, %r8d
	movq	%rax, %rcx
	movb	$10, 47(%rsp)
.LVL57:
	call	_ZSt16__ostream_insertIcSt11char_traitsIcEERSt13basic_ostreamIT_T0_ES6_PKS3_x
	nop
.LVL58:
.LBE87:
.LBE86:
	.loc 2 37 0
	addq	$64, %rsp
	.cfi_def_cfa_offset 16
	popq	%rbx
	.cfi_restore 3
	.cfi_def_cfa_offset 8
	ret
	.cfi_endproc
.LFE1531:
	.seh_endproc
	.def	__main;	.scl	2;	.type	32;	.endef
	.section	.text.startup,"x"
	.p2align 4,,15
	.globl	main
	.def	main;	.scl	2;	.type	32;	.endef
	.seh_proc	main
main:
.LFB1532:
	.loc 2 40 0
	.cfi_startproc
	subq	$40, %rsp
	.seh_stackalloc	40
	.cfi_def_cfa_offset 48
	.seh_endprologue
	.loc 2 40 0
	call	__main
.LVL59:
	.loc 2 41 0
	call	_Z12testintegersv
.LVL60:
	.loc 2 42 0
	call	_Z9testuintsv
.LVL61:
	.loc 2 43 0
	call	_Z9testfloatv
.LVL62:
	.loc 2 44 0
	call	_Z11testMethodsv
.LVL63:
	.loc 2 45 0
	xorl	%eax, %eax
	addq	$40, %rsp
	.cfi_def_cfa_offset 8
	ret
	.cfi_endproc
.LFE1532:
	.seh_endproc
	.p2align 4,,15
	.def	_GLOBAL__sub_I__Z12testintegersv;	.scl	3;	.type	32;	.endef
	.seh_proc	_GLOBAL__sub_I__Z12testintegersv
_GLOBAL__sub_I__Z12testintegersv:
.LFB1976:
	.loc 2 45 0
	.cfi_startproc
	subq	$40, %rsp
	.seh_stackalloc	40
	.cfi_def_cfa_offset 48
	.seh_endprologue
.LVL64:
.LBB88:
.LBB89:
	.loc 1 74 0
	leaq	_ZStL8__ioinit(%rip), %rcx
	call	_ZNSt8ios_base4InitC1Ev
.LVL65:
	leaq	__tcf_0(%rip), %rcx
.LBE89:
.LBE88:
	.loc 2 45 0
	addq	$40, %rsp
	.cfi_def_cfa_offset 8
.LBB91:
.LBB90:
	.loc 1 74 0
	jmp	atexit
.LVL66:
.LBE90:
.LBE91:
	.cfi_endproc
.LFE1976:
	.seh_endproc
	.section	.ctors,"w"
	.align 8
	.quad	_GLOBAL__sub_I__Z12testintegersv
.lcomm _ZStL8__ioinit,1,1
	.section .rdata,"dr"
	.align 4
.LC0:
	.long	1069547520
	.align 8
.LC1:
	.long	0
	.long	1074003968
	.text
.Letext0:
	.file 4 "D:/msys64/mingw64/include/c++/6.2.0/cwchar"
	.file 5 "<built-in>"
	.file 6 "D:/msys64/mingw64/include/c++/6.2.0/bits/exception_ptr.h"
	.file 7 "D:/msys64/mingw64/include/c++/6.2.0/type_traits"
	.file 8 "D:/msys64/mingw64/include/c++/6.2.0/x86_64-w64-mingw32/bits/c++config.h"
	.file 9 "D:/msys64/mingw64/include/c++/6.2.0/debug/debug.h"
	.file 10 "D:/msys64/mingw64/include/c++/6.2.0/bits/char_traits.h"
	.file 11 "D:/msys64/mingw64/include/c++/6.2.0/bits/stl_pair.h"
	.file 12 "D:/msys64/mingw64/include/c++/6.2.0/cstdint"
	.file 13 "D:/msys64/mingw64/include/c++/6.2.0/clocale"
	.file 14 "D:/msys64/mingw64/include/c++/6.2.0/new"
	.file 15 "D:/msys64/mingw64/include/c++/6.2.0/cstdlib"
	.file 16 "D:/msys64/mingw64/include/c++/6.2.0/cstdio"
	.file 17 "D:/msys64/mingw64/include/c++/6.2.0/bits/basic_string.h"
	.file 18 "D:/msys64/mingw64/include/c++/6.2.0/system_error"
	.file 19 "D:/msys64/mingw64/include/c++/6.2.0/bits/ios_base.h"
	.file 20 "D:/msys64/mingw64/include/c++/6.2.0/cwctype"
	.file 21 "D:/msys64/mingw64/include/c++/6.2.0/bits/ostream.tcc"
	.file 22 "D:/msys64/mingw64/include/c++/6.2.0/iosfwd"
	.file 23 "D:/msys64/mingw64/include/c++/6.2.0/bits/ostream_insert.h"
	.file 24 "D:/msys64/mingw64/include/c++/6.2.0/bits/predefined_ops.h"
	.file 25 "D:/msys64/mingw64/include/c++/6.2.0/ext/new_allocator.h"
	.file 26 "D:/msys64/mingw64/include/c++/6.2.0/ext/numeric_traits.h"
	.file 27 "D:/msys64/mingw64/x86_64-w64-mingw32/include/crtdefs.h"
	.file 28 "D:/msys64/mingw64/x86_64-w64-mingw32/include/locale.h"
	.file 29 "D:/msys64/mingw64/x86_64-w64-mingw32/include/wchar.h"
	.file 30 "D:/msys64/mingw64/x86_64-w64-mingw32/include/swprintf.inl"
	.file 31 "D:/msys64/mingw64/x86_64-w64-mingw32/include/stdint.h"
	.file 32 "D:/msys64/mingw64/x86_64-w64-mingw32/include/stdio.h"
	.file 33 "D:/msys64/mingw64/x86_64-w64-mingw32/include/ctype.h"
	.file 34 "D:/msys64/mingw64/x86_64-w64-mingw32/include/process.h"
	.file 35 "D:/msys64/mingw64/x86_64-w64-mingw32/include/pthread.h"
	.file 36 "D:/msys64/mingw64/include/c++/6.2.0/x86_64-w64-mingw32/bits/atomic_word.h"
	.file 37 "D:/msys64/mingw64/x86_64-w64-mingw32/include/stdlib.h"
	.file 38 "D:/msys64/mingw64/x86_64-w64-mingw32/include/malloc.h"
	.file 39 "D:/msys64/mingw64/x86_64-w64-mingw32/include/wctype.h"
	.file 40 "calls.hh"
	.section	.rdata$.refptr._ZSt4cout, "dr"
	.globl	.refptr._ZSt4cout
	.linkonce	discard
.refptr._ZSt4cout:
	.quad	_ZSt4cout
