	.file	"polymain.cc"
	.text
.Ltext0:
	.cfi_sections	.debug_frame
	.p2align 4,,15
	.def	__tcf_0;	.scl	3;	.type	32;	.endef
	.seh_proc	__tcf_0
__tcf_0:
.LFB1765:
	.file 1 "D:/msys64/mingw64/include/c++/6.2.0/iostream"
	.loc 1 74 0
	.cfi_startproc
	.seh_endprologue
	.loc 1 74 0
	leaq	_ZStL8__ioinit(%rip), %rcx
	jmp	_ZNSt8ios_base4InitD1Ev
.LVL0:
	.cfi_endproc
.LFE1765:
	.seh_endproc
	.def	__main;	.scl	2;	.type	32;	.endef
	.section	.text.startup,"x"
	.p2align 4,,15
	.globl	main
	.def	main;	.scl	2;	.type	32;	.endef
	.seh_proc	main
main:
.LFB1480:
	.file 2 "polymain.cc"
	.loc 2 4 0
	.cfi_startproc
	pushq	%rsi
	.seh_pushreg	%rsi
	.cfi_def_cfa_offset 16
	.cfi_offset 4, -16
	pushq	%rbx
	.seh_pushreg	%rbx
	.cfi_def_cfa_offset 24
	.cfi_offset 3, -24
	subq	$104, %rsp
	.seh_stackalloc	104
	.cfi_def_cfa_offset 128
	movaps	%xmm6, 64(%rsp)
	.seh_savexmm	%xmm6, 64
	movaps	%xmm7, 80(%rsp)
	.seh_savexmm	%xmm7, 80
	.cfi_offset 23, -64
	.cfi_offset 24, -48
	.seh_endprologue
.LBB19:
.LBB20:
.LBB21:
.LBB22:
.LBB23:
	.file 3 "Polynomial.hh"
	.loc 3 13 0
	pxor	%xmm6, %xmm6
	movl	$1000000000, %ebx
.LBE23:
.LBE22:
.LBE21:
.LBE20:
.LBE19:
	.loc 2 4 0
	call	__main
.LVL1:
.LBB30:
.LBB29:
.LBB28:
.LBB26:
	.loc 3 11 0
	movl	$16, %ecx
.LBE26:
	.loc 3 10 0
	movl	$2, 48(%rsp)
	leaq	48(%rsp), %rsi
.LVL2:
.LBB27:
	.loc 3 11 0
	call	_Znay
.LVL3:
.LBB24:
	.loc 3 13 0
	movsd	.LC1(%rip), %xmm0
.LBE24:
	.loc 3 11 0
	movq	%rax, 56(%rsp)
.LVL4:
.LBB25:
	.loc 3 13 0
	movsd	.LC2(%rip), %xmm7
	movsd	%xmm0, (%rax)
.LVL5:
	movsd	%xmm7, 8(%rax)
.LVL6:
	movsd	%xmm0, 16(%rax)
.LVL7:
	.p2align 4,,10
.L3:
.LBE25:
.LBE27:
.LBE28:
.LBE29:
.LBE30:
.LBB31:
	.loc 2 12 0
	movapd	%xmm7, %xmm1
	movq	%rsi, %rcx
	call	_ZNK10Polynomial4evalEd
.LVL8:
	.loc 2 11 0
	subl	$1, %ebx
.LVL9:
	.loc 2 12 0
	addsd	%xmm0, %xmm6
.LVL10:
	.loc 2 11 0
	jne	.L3
.LVL11:
.LBE31:
.LBB32:
.LBB33:
	.file 4 "D:/msys64/mingw64/include/c++/6.2.0/ostream"
	.loc 4 221 0
	movq	.refptr._ZSt4cout(%rip), %rcx
	movapd	%xmm6, %xmm1
	call	_ZNSo9_M_insertIdEERSoT_
.LVL12:
.LBE33:
.LBE32:
.LBB34:
.LBB35:
	.loc 4 509 0
	leaq	47(%rsp), %rdx
	movl	$1, %r8d
	movq	%rax, %rcx
	movb	$10, 47(%rsp)
.LVL13:
	call	_ZSt16__ostream_insertIcSt11char_traitsIcEERSt13basic_ostreamIT_T0_ES6_PKS3_x
	nop
.LVL14:
.LBE35:
.LBE34:
	.loc 2 14 0
	movaps	64(%rsp), %xmm6
.LVL15:
	xorl	%eax, %eax
	movaps	80(%rsp), %xmm7
	addq	$104, %rsp
	.cfi_restore 24
	.cfi_restore 23
	.cfi_def_cfa_offset 24
	popq	%rbx
	.cfi_restore 3
	.cfi_def_cfa_offset 16
	popq	%rsi
	.cfi_restore 4
	.cfi_def_cfa_offset 8
.LVL16:
	ret
	.cfi_endproc
.LFE1480:
	.seh_endproc
	.p2align 4,,15
	.def	_GLOBAL__sub_I_main;	.scl	3;	.type	32;	.endef
	.seh_proc	_GLOBAL__sub_I_main
_GLOBAL__sub_I_main:
.LFB1766:
	.loc 2 14 0
	.cfi_startproc
	subq	$40, %rsp
	.seh_stackalloc	40
	.cfi_def_cfa_offset 48
	.seh_endprologue
.LVL17:
.LBB36:
.LBB37:
	.loc 1 74 0
	leaq	_ZStL8__ioinit(%rip), %rcx
	call	_ZNSt8ios_base4InitC1Ev
.LVL18:
	leaq	__tcf_0(%rip), %rcx
.LBE37:
.LBE36:
	.loc 2 14 0
	addq	$40, %rsp
	.cfi_def_cfa_offset 8
.LBB39:
.LBB38:
	.loc 1 74 0
	jmp	atexit
.LVL19:
.LBE38:
.LBE39:
	.cfi_endproc
.LFE1766:
	.seh_endproc
	.section	.ctors,"w"
	.align 8
	.quad	_GLOBAL__sub_I_main
.lcomm _ZStL8__ioinit,1,1
	.section .rdata,"dr"
	.align 8
.LC1:
	.long	0
	.long	1072693248
	.align 8
.LC2:
	.long	0
	.long	1073741824
	.text
.Letext0:
	.file 5 "D:/msys64/mingw64/include/c++/6.2.0/cwchar"
	.file 6 "<built-in>"
	.file 7 "D:/msys64/mingw64/include/c++/6.2.0/bits/exception_ptr.h"
	.file 8 "D:/msys64/mingw64/include/c++/6.2.0/type_traits"
	.file 9 "D:/msys64/mingw64/include/c++/6.2.0/x86_64-w64-mingw32/bits/c++config.h"
	.file 10 "D:/msys64/mingw64/include/c++/6.2.0/debug/debug.h"
	.file 11 "D:/msys64/mingw64/include/c++/6.2.0/bits/char_traits.h"
	.file 12 "D:/msys64/mingw64/include/c++/6.2.0/bits/stl_pair.h"
	.file 13 "D:/msys64/mingw64/include/c++/6.2.0/cstdint"
	.file 14 "D:/msys64/mingw64/include/c++/6.2.0/clocale"
	.file 15 "D:/msys64/mingw64/include/c++/6.2.0/new"
	.file 16 "D:/msys64/mingw64/include/c++/6.2.0/cstdlib"
	.file 17 "D:/msys64/mingw64/include/c++/6.2.0/cstdio"
	.file 18 "D:/msys64/mingw64/include/c++/6.2.0/system_error"
	.file 19 "D:/msys64/mingw64/include/c++/6.2.0/bits/ios_base.h"
	.file 20 "D:/msys64/mingw64/include/c++/6.2.0/cwctype"
	.file 21 "D:/msys64/mingw64/include/c++/6.2.0/iosfwd"
	.file 22 "D:/msys64/mingw64/include/c++/6.2.0/bits/ostream.tcc"
	.file 23 "D:/msys64/mingw64/include/c++/6.2.0/bits/ostream_insert.h"
	.file 24 "D:/msys64/mingw64/include/c++/6.2.0/bits/predefined_ops.h"
	.file 25 "D:/msys64/mingw64/include/c++/6.2.0/ext/new_allocator.h"
	.file 26 "D:/msys64/mingw64/include/c++/6.2.0/ext/numeric_traits.h"
	.file 27 "D:/msys64/mingw64/x86_64-w64-mingw32/include/crtdefs.h"
	.file 28 "D:/msys64/mingw64/x86_64-w64-mingw32/include/locale.h"
	.file 29 "D:/msys64/mingw64/x86_64-w64-mingw32/include/wchar.h"
	.file 30 "D:/msys64/mingw64/x86_64-w64-mingw32/include/swprintf.inl"
	.file 31 "D:/msys64/mingw64/x86_64-w64-mingw32/include/stdint.h"
	.file 32 "D:/msys64/mingw64/x86_64-w64-mingw32/include/stdio.h"
	.file 33 "D:/msys64/mingw64/x86_64-w64-mingw32/include/ctype.h"
	.file 34 "D:/msys64/mingw64/x86_64-w64-mingw32/include/process.h"
	.file 35 "D:/msys64/mingw64/x86_64-w64-mingw32/include/pthread.h"
	.file 36 "D:/msys64/mingw64/include/c++/6.2.0/x86_64-w64-mingw32/bits/atomic_word.h"
	.file 37 "D:/msys64/mingw64/x86_64-w64-mingw32/include/stdlib.h"
	.file 38 "D:/msys64/mingw64/x86_64-w64-mingw32/include/malloc.h"
	.file 39 "D:/msys64/mingw64/x86_64-w64-mingw32/include/wctype.h"
	.section	.rdata$.refptr._ZSt4cout, "dr"
	.globl	.refptr._ZSt4cout
	.linkonce	discard
.refptr._ZSt4cout:
	.quad	_ZSt4cout
