	.arch armv8-a
	.file	"stack.cc"
	.text
.Ltext0:
	.section	.text.startup,"ax",@progbits
	.align	2
	.p2align 4,,11
	.global	main
	.type	main, %function
main:
.LFB1592:
	.file 1 "stack.cc"
	.loc 1 7 12 view -0
	.cfi_startproc
	.loc 1 8 2 view .LVU1
	.loc 1 9 2 view .LVU2
	.loc 1 7 12 is_stmt 0 view .LVU3
	stp	x29, x30, [sp, -32]!
	.cfi_def_cfa_offset 32
	.cfi_offset 29, -32
	.cfi_offset 30, -24
	.loc 1 9 9 view .LVU4
	adrp	x0, :got:_ZSt3cin
	.loc 1 7 12 view .LVU5
	mov	x29, sp
	.loc 1 9 9 view .LVU6
	ldr	x0, [x0, #:got_lo12:_ZSt3cin]
	add	x1, sp, 28
	bl	_ZNSirsERi
.LVL0:
	.loc 1 10 2 is_stmt 1 view .LVU7
	.loc 1 10 11 is_stmt 0 view .LVU8
	ldr	w0, [sp, 28]
	bl	_Z1fi
.LVL1:
	.loc 1 11 2 is_stmt 1 view .LVU9
	.loc 1 11 10 is_stmt 0 view .LVU10
	mov	w1, w0
	adrp	x2, :got:_ZSt4cout
	ldr	x0, [x2, #:got_lo12:_ZSt4cout]
.LVL2:
	.loc 1 11 10 view .LVU11
	bl	_ZNSolsEi
.LVL3:
	.loc 1 12 1 view .LVU12
	mov	w0, 0
	ldp	x29, x30, [sp], 32
	.cfi_restore 30
	.cfi_restore 29
	.cfi_def_cfa_offset 0
	ret
	.cfi_endproc
.LFE1592:
	.size	main, .-main
	.align	2
	.p2align 4,,11
	.type	_GLOBAL__sub_I_main, %function
_GLOBAL__sub_I_main:
.LFB2085:
	.loc 1 12 1 is_stmt 1 view -0
	.cfi_startproc
.LBB4:
.LBI4:
	.loc 1 12 1 view .LVU14
.LVL4:
	.loc 1 12 1 is_stmt 0 view .LVU15
.LBE4:
	stp	x29, x30, [sp, -32]!
	.cfi_def_cfa_offset 32
	.cfi_offset 29, -32
	.cfi_offset 30, -24
	mov	x29, sp
	str	x19, [sp, 16]
	.cfi_offset 19, -16
.LBB8:
.LBB5:
	.file 2 "/usr/include/c++/10/iostream"
	.loc 2 74 25 view .LVU16
	adrp	x19, .LANCHOR0
	add	x19, x19, :lo12:.LANCHOR0
	mov	x0, x19
	bl	_ZNSt8ios_base4InitC1Ev
.LVL5:
	mov	x1, x19
	adrp	x0, :got:_ZNSt8ios_base4InitD1Ev
.LBE5:
.LBE8:
	.loc 1 12 1 view .LVU17
	ldr	x19, [sp, 16]
.LBB9:
.LBB6:
	.loc 2 74 25 view .LVU18
	adrp	x2, __dso_handle
.LBE6:
.LBE9:
	.loc 1 12 1 view .LVU19
	ldp	x29, x30, [sp], 32
	.cfi_restore 30
	.cfi_restore 29
	.cfi_restore 19
	.cfi_def_cfa_offset 0
.LBB10:
.LBB7:
	.loc 2 74 25 view .LVU20
	add	x2, x2, :lo12:__dso_handle
	ldr	x0, [x0, #:got_lo12:_ZNSt8ios_base4InitD1Ev]
	b	__cxa_atexit
.LVL6:
.LBE7:
.LBE10:
	.cfi_endproc
.LFE2085:
	.size	_GLOBAL__sub_I_main, .-_GLOBAL__sub_I_main
	.section	.init_array,"aw"
	.align	3
	.xword	_GLOBAL__sub_I_main
	.bss
	.align	3
	.set	.LANCHOR0,. + 0
	.type	_ZStL8__ioinit, %object
	.size	_ZStL8__ioinit, 1
_ZStL8__ioinit:
	.zero	1
	.text
.Letext0:
	.file 3 "/usr/include/c++/10/cwchar"
	.file 4 "/usr/include/c++/10/bits/exception_ptr.h"
	.file 5 "/usr/include/aarch64-linux-gnu/c++/10/bits/c++config.h"
	.file 6 "/usr/include/c++/10/type_traits"
	.file 7 "/usr/include/c++/10/bits/stl_pair.h"
	.file 8 "/usr/include/c++/10/debug/debug.h"
	.file 9 "/usr/include/c++/10/bits/char_traits.h"
	.file 10 "/usr/include/c++/10/cstdint"
	.file 11 "/usr/include/c++/10/clocale"
	.file 12 "/usr/include/c++/10/cstdlib"
	.file 13 "/usr/include/c++/10/cstdio"
	.file 14 "/usr/include/c++/10/bits/basic_string.h"
	.file 15 "/usr/include/c++/10/system_error"
	.file 16 "/usr/include/c++/10/bits/ios_base.h"
	.file 17 "/usr/include/c++/10/cwctype"
	.file 18 "/usr/include/c++/10/bits/ostream.tcc"
	.file 19 "/usr/include/c++/10/istream"
	.file 20 "/usr/include/c++/10/iosfwd"
	.file 21 "/usr/include/c++/10/bits/predefined_ops.h"
	.file 22 "/usr/lib/gcc/aarch64-linux-gnu/10/include/stddef.h"
	.file 23 "/usr/lib/gcc/aarch64-linux-gnu/10/include/stdarg.h"
	.file 24 "/usr/include/aarch64-linux-gnu/bits/types/wint_t.h"
	.file 25 "/usr/include/aarch64-linux-gnu/bits/types/__mbstate_t.h"
	.file 26 "/usr/include/aarch64-linux-gnu/bits/types/mbstate_t.h"
	.file 27 "/usr/include/aarch64-linux-gnu/bits/types/__FILE.h"
	.file 28 "/usr/include/aarch64-linux-gnu/bits/types/struct_FILE.h"
	.file 29 "/usr/include/aarch64-linux-gnu/bits/types/FILE.h"
	.file 30 "/usr/include/wchar.h"
	.file 31 "/usr/include/aarch64-linux-gnu/bits/types/struct_tm.h"
	.file 32 "/usr/include/aarch64-linux-gnu/bits/types.h"
	.file 33 "/usr/include/aarch64-linux-gnu/bits/stdint-intn.h"
	.file 34 "/usr/include/aarch64-linux-gnu/bits/stdint-uintn.h"
	.file 35 "/usr/include/stdint.h"
	.file 36 "/usr/include/locale.h"
	.file 37 "/usr/include/aarch64-linux-gnu/c++/10/bits/atomic_word.h"
	.file 38 "/usr/include/stdlib.h"
	.file 39 "/usr/include/aarch64-linux-gnu/bits/stdlib-float.h"
	.file 40 "/usr/include/aarch64-linux-gnu/bits/stdlib-bsearch.h"
	.file 41 "/usr/include/aarch64-linux-gnu/bits/types/__fpos_t.h"
	.file 42 "/usr/include/stdio.h"
	.file 43 "/usr/include/aarch64-linux-gnu/bits/stdio.h"
	.file 44 "/usr/include/aarch64-linux-gnu/bits/wctype-wchar.h"
	.file 45 "/usr/include/wctype.h"
	.file 46 "<built-in>"
	.section	.note.GNU-stack,"",@progbits
